 odm.player.net

 Timestamp is 5c9228cc (Wed Mar 20 20:49:32 2019)

 Preferred load address is 10000000

 Start         Length     Name                   Class
 0001:00000000 00000517H .text$di                CODE
 0001:00000520 00017e6aH .text$mn                CODE
 0001:0001838a 00000f79H .text$x                 CODE
 0001:00019304 00000021H .text$yd                CODE
 0002:00000000 000001e8H .idata$5                DATA
 0002:000001e8 00000004H .CRT$XCA                DATA
 0002:000001ec 00000060H .CRT$XCU                DATA
 0002:0000024c 00000004H .CRT$XCZ                DATA
 0002:00000250 00000004H .CRT$XIA                DATA
 0002:00000254 00000004H .CRT$XIAA               DATA
 0002:00000258 00000004H .CRT$XIC                DATA
 0002:0000025c 00000004H .CRT$XIZ                DATA
 0002:00000260 00000004H .CRTMA$XCA              DATA
 0002:00000264 0000001cH .CRTMA$XCC              DATA
 0002:00000280 00000004H .CRTMA$XCZ              DATA
 0002:00000284 00000004H .CRTMP$XCA              DATA
 0002:00000288 0000000cH .CRTMP$XCU              DATA
 0002:00000294 00000004H .CRTMP$XCZ              DATA
 0002:00000298 00000004H .CRTVT$XCA              DATA
 0002:0000029c 00000004H .CRTVT$XCZ              DATA
 0002:000002a0 0000d7b0H .rdata                  DATA
 0002:0000da50 000000b8H .rdata$ilfixup          DATA
 0002:0000db08 00002a68H .rdata$r                DATA
 0002:00010570 00000158H .rdata$sxdata           DATA
 0002:000106c8 00000004H .rtc$IAA                DATA
 0002:000106cc 00000004H .rtc$IZZ                DATA
 0002:000106d0 00000004H .rtc$TAA                DATA
 0002:000106d4 00000004H .rtc$TZZ                DATA
 0002:000106d8 00001380H .xdata$x                DATA
 0002:00011a58 00000000H .edata                  DATA
 0002:00011a58 000000b4H .idata$2                DATA
 0002:00011b0c 00000014H .idata$3                DATA
 0002:00011b20 000001e8H .idata$4                DATA
 0002:00011d08 000005baH .idata$6                DATA
 0003:00000000 000049e0H .data                   DATA
 0003:000049e0 00001bf7H .data$r                 DATA
 0003:000065e0 00001384H .bss                    DATA
 0004:00000000 000000a0H .rsrc$01                DATA
 0004:000000a0 00000458H .rsrc$02                DATA

  Address         Publics by Value              Rva+Base       Lib:Object

 0000:00000000       ___guard_flags             00000000     <absolute>
 0000:00000000       __except_list              00000000     <absolute>
 0000:00000000       ___guard_fids_count        00000000     <absolute>
 0000:00000000       ___guard_fids_table        00000000     <absolute>
 0000:00000001       ?IsDefaultDomain@CurrentDomain@<CrtImplementationDetails>@@$$Q2_NA 00000001     <absolute>
 0000:00000004       ?InitializedPerProcess@CurrentDomain@<CrtImplementationDetails>@@$$Q2W4State@Progress@2@A 00000004     <absolute>
 0000:00000004       ?InitializedNative@CurrentDomain@<CrtImplementationDetails>@@$$Q2W4State@Progress@2@A 00000004     <absolute>
 0000:00000004       ?Uninitialized@CurrentDomain@<CrtImplementationDetails>@@$$Q2HA 00000004     <absolute>
 0000:00000004       ?__onexitbegin_app_domain@@$$Q3PAP6MXXZA 00000004     <absolute>
 0000:00000004       ?InitializedPerAppDomain@CurrentDomain@<CrtImplementationDetails>@@$$Q2W4State@Progress@2@A 00000004     <absolute>
 0000:00000004       ?InitializedVtables@CurrentDomain@<CrtImplementationDetails>@@$$Q2W4State@Progress@2@A 00000004     <absolute>
 0000:00000004       ?_lock@AtExitLock@<CrtImplementationDetails>@@$$Q0PAXA 00000004     <absolute>
 0000:00000004       ?_ref_count@AtExitLock@<CrtImplementationDetails>@@$$Q0HA 00000004     <absolute>
 0000:00000004       ?Initialized@CurrentDomain@<CrtImplementationDetails>@@$$Q2HA 00000004     <absolute>
 0000:00000004       ?__onexitend_app_domain@@$$Q3PAP6MXXZA 00000004     <absolute>
 0000:00000004       ?__exit_list_size_app_domain@@$$Q3IA 00000004     <absolute>
 0000:00000056       ___safe_se_handler_count   00000056     <absolute>
 0000:00009876       __ldused                   00009876     <absolute>
 0000:00009876       __fltused                  00009876     <absolute>
 0000:00000000       ___ImageBase               10000000     <linker-defined>
 0001:0000042c       ???__E?A0x5b000e18@DELAY_MINUTE@@YMXXZ@?A0x5b000e18@@$$FYMXXZ 1000142c f i libapi.obj
 0001:0000044c       ???__E?A0x5b000e18@DELAY_HOUR@@YMXXZ@?A0x5b000e18@@$$FYMXXZ 1000144c f i libapi.obj
 0001:0000046c       ???__E?A0x5b000e18@DELAY_DAY@@YMXXZ@?A0x5b000e18@@$$FYMXXZ 1000146c f i libapi.obj
 0001:0000048c       ???__E?Initialized@CurrentDomain@<CrtImplementationDetails>@@$$Q2HA@@YMXXZ@?A0xd2508fec@@$$FYMXXZ 1000148c f i msvcmrt:mstartup.obj
 0001:000004a0       ???__E?Uninitialized@CurrentDomain@<CrtImplementationDetails>@@$$Q2HA@@YMXXZ@?A0xd2508fec@@$$FYMXXZ 100014a0 f i msvcmrt:mstartup.obj
 0001:000004b4       ???__E?IsDefaultDomain@CurrentDomain@<CrtImplementationDetails>@@$$Q2_NA@@YMXXZ@?A0xd2508fec@@$$FYMXXZ 100014b4 f i msvcmrt:mstartup.obj
 0001:000004c8       ???__E?InitializedVtables@CurrentDomain@<CrtImplementationDetails>@@$$Q2W4State@Progress@2@A@@YMXXZ@?A0xd2508fec@@$$FYMXXZ 100014c8 f i msvcmrt:mstartup.obj
 0001:000004dc       ???__E?InitializedNative@CurrentDomain@<CrtImplementationDetails>@@$$Q2W4State@Progress@2@A@@YMXXZ@?A0xd2508fec@@$$FYMXXZ 100014dc f i msvcmrt:mstartup.obj
 0001:000004f0       ???__E?InitializedPerProcess@CurrentDomain@<CrtImplementationDetails>@@$$Q2W4State@Progress@2@A@@YMXXZ@?A0xd2508fec@@$$FYMXXZ 100014f0 f i msvcmrt:mstartup.obj
 0001:00000504       ???__E?InitializedPerAppDomain@CurrentDomain@<CrtImplementationDetails>@@$$Q2W4State@Progress@2@A@@YMXXZ@?A0xd2508fec@@$$FYMXXZ 10001504 f i msvcmrt:mstartup.obj
 0001:00000520       ?Dispose@VideoDecoder@onvifmp@@MAEXXZ 10001520 f i odm-player:Live555.obj
 0001:00000520       ??3@YAXPAX0@Z              10001520 f i live555:NetInterface.obj
 0001:00000520       ?Dispose@MetadataCollector@onvifmp@@MAEXXZ 10001520 f i odm-player:MetadataCollector.obj
 0001:00000520       ?Dispose@VideoRenderer@onvifmp@@MAEXXZ 10001520 f i odm-player:Live555.obj
 0001:00000521       ?default_error_condition@error_category@std@@UBE?AVerror_condition@2@H@Z 10001521 f i live555:NetInterface.obj
 0001:00000533       ?equivalent@error_category@std@@UBE_NHABVerror_condition@2@@Z 10001533 f i live555:NetInterface.obj
 0001:00000562       ?equivalent@error_category@std@@UBE_NABVerror_code@2@H@Z 10001562 f i live555:NetInterface.obj
 0001:0000057f       ?name@_Generic_error_category@std@@UBEPBDXZ 1000157f f i live555:NetInterface.obj
 0001:00000585       ?message@_Generic_error_category@std@@UBE?AV?$basic_string@DU?$char_traits@D@std@@V?$allocator@D@2@@2@H@Z 10001585 f i live555:NetInterface.obj
 0001:000005b3       ?name@_Iostream_error_category@std@@UBEPBDXZ 100015b3 f i live555:NetInterface.obj
 0001:000005b9       ?message@_Iostream_error_category@std@@UBE?AV?$basic_string@DU?$char_traits@D@std@@V?$allocator@D@2@@2@H@Z 100015b9 f i live555:NetInterface.obj
 0001:000005ea       ?name@_System_error_category@std@@UBEPBDXZ 100015ea f i live555:NetInterface.obj
 0001:000005f0       ?message@_System_error_category@std@@UBE?AV?$basic_string@DU?$char_traits@D@std@@V?$allocator@D@2@@2@H@Z 100015f0 f i live555:NetInterface.obj
 0001:0000061e       ?default_error_condition@_System_error_category@std@@UBE?AVerror_condition@2@H@Z 1000161e f i live555:NetInterface.obj
 0001:0000064b       ??_ENetInterface@@UAEPAXI@Z 1000164b f i * CIL library *:* CIL module *
 0001:0000064b       ??_GNetInterface@@UAEPAXI@Z 1000164b f i live555:NetInterface.obj
 0001:0000066b       ??1NetInterface@@UAE@XZ    1000166b f   live555:NetInterface.obj
 0001:00000672       ??_EDirectedNetInterfaceSet@@UAEPAXI@Z 10001672 f i * CIL library *:* CIL module *
 0001:00000672       ??_GDirectedNetInterfaceSet@@UAEPAXI@Z 10001672 f i live555:NetInterface.obj
 0001:00000691       ??1DirectedNetInterfaceSet@@UAE@XZ 10001691 f   live555:NetInterface.obj
 0001:000006a5       ??_EIterator@DirectedNetInterfaceSet@@UAEPAXI@Z 100016a5 f i * CIL library *:* CIL module *
 0001:000006a5       ??_GIterator@DirectedNetInterfaceSet@@UAEPAXI@Z 100016a5 f i live555:NetInterface.obj
 0001:000006c4       ??1Iterator@DirectedNetInterfaceSet@@UAE@XZ 100016c4 f   live555:NetInterface.obj
 0001:000006d8       ??0Socket@@IAE@AAVUsageEnvironment@@VPort@@@Z 100016d8 f   live555:NetInterface.obj
 0001:00000721       ??_GSocket@@UAEPAXI@Z      10001721 f i live555:NetInterface.obj
 0001:00000721       ??_ESocket@@UAEPAXI@Z      10001721 f i * CIL library *:* CIL module *
 0001:00000740       ??1Socket@@UAE@XZ          10001740 f   live555:NetInterface.obj
 0001:0000075a       ?changePort@Socket@@IAE_NVPort@@@Z 1000175a f   live555:NetInterface.obj
 0001:000007b0       ??0?$basic_string@DU?$char_traits@D@std@@V?$allocator@D@2@@std@@QAE@PBD@Z 100017b0 f i live555:NetInterface.obj
 0001:000007eb       ?assign@?$basic_string@DU?$char_traits@D@std@@V?$allocator@D@2@@std@@QAEAAV12@ABV12@II@Z 100017eb f i live555:NetInterface.obj
 0001:0000088d       ?_Tidy@?$basic_string@DU?$char_traits@D@std@@V?$allocator@D@2@@std@@QAEX_NI@Z 1000188d f i live555:NetInterface.obj
 0001:000008d1       ?assign@?$basic_string@DU?$char_traits@D@std@@V?$allocator@D@2@@std@@QAEAAV12@PBDI@Z 100018d1 f i live555:NetInterface.obj
 0001:00000964       ?erase@?$basic_string@DU?$char_traits@D@std@@V?$allocator@D@2@@std@@QAEAAV12@II@Z 10001964 f i live555:NetInterface.obj
 0001:000009c3       ?_Grow@?$basic_string@DU?$char_traits@D@std@@V?$allocator@D@2@@std@@QAE_NI_N@Z 100019c3 f i live555:NetInterface.obj
 0001:00000a09       ?_Copy@?$basic_string@DU?$char_traits@D@std@@V?$allocator@D@2@@std@@QAEXII@Z 10001a09 f i live555:NetInterface.obj
 0001:00000af1       ?allocate@?$_Wrap_alloc@V?$allocator@D@std@@@std@@QAEPADI@Z 10001af1 f i live555:NetInterface.obj
 0001:00000b1c       ??8Timeval@@QBEHABV0@@Z    10001b1c f i live555:DelayQueue.obj
 0001:00000b43       ??PTimeval@@QBEHABV0@@Z    10001b43 f   live555:DelayQueue.obj
 0001:00000b64       ??ZTimeval@@QAEXABVDelayInterval@@@Z 10001b64 f   live555:DelayQueue.obj
 0001:00000b8e       ??D@YA?AVDelayInterval@@FABV0@@Z 10001b8e f   live555:DelayQueue.obj
 0001:00000b8e       ??D@$$FYA?AVDelayInterval@@FABV0@@Z 10001b8e f   * CIL library *:* CIL module *
 0001:00000bcb       ??0DelayQueueEntry@@IAE@VDelayInterval@@@Z 10001bcb f   live555:DelayQueue.obj
 0001:00000bfa       ??_GAlarmHandler@@UAEPAXI@Z 10001bfa f i live555:BasicTaskScheduler0.obj
 0001:00000bfa       ??_GDelayQueueEntry@@UAEPAXI@Z 10001bfa f i live555:DelayQueue.obj
 0001:00000bfa       ??_EDelayQueueEntry@@UAEPAXI@Z 10001bfa f i * CIL library *:* CIL module *
 0001:00000bfa       ??_EAlarmHandler@@UAEPAXI@Z 10001bfa f i * CIL library *:* CIL module *
 0001:00000c1a       ??1DelayQueueEntry@@UAE@XZ 10001c1a f   live555:DelayQueue.obj
 0001:00000c21       ?handleTimeout@DelayQueueEntry@@MAEXXZ 10001c21 f   live555:DelayQueue.obj
 0001:00000c2c       ??_GDelayQueue@@UAEPAXI@Z  10001c2c f i live555:DelayQueue.obj
 0001:00000c2c       ??_EDelayQueue@@UAEPAXI@Z  10001c2c f i * CIL library *:* CIL module *
 0001:00000c4b       ??1DelayQueue@@UAE@XZ      10001c4b f   live555:DelayQueue.obj
 0001:00000c8f       ?addEntry@DelayQueue@@QAEXPAVDelayQueueEntry@@@Z 10001c8f f   live555:DelayQueue.obj
 0001:00000cd9       ?removeEntry@DelayQueue@@QAEXPAVDelayQueueEntry@@@Z 10001cd9 f   live555:DelayQueue.obj
 0001:00000d1e       ?synchronize@DelayQueue@@AAEXXZ 10001d1e f   live555:DelayQueue.obj
 0001:00000ddd       ??_EBasicHashTable@@UAEPAXI@Z 10001ddd f i * CIL library *:* CIL module *
 0001:00000ddd       ??_GBasicHashTable@@UAEPAXI@Z 10001ddd f i live555:BasicHashTable.obj
 0001:00000dfc       ??1BasicHashTable@@UAE@XZ  10001dfc f   live555:BasicHashTable.obj
 0001:00000e42       ?Add@BasicHashTable@@EAEPAXPBDPAX@Z 10001e42 f   live555:BasicHashTable.obj
 0001:00000e8d       ?Remove@BasicHashTable@@EAE_NPBD@Z 10001e8d f   live555:BasicHashTable.obj
 0001:00000ebc       ?Lookup@BasicHashTable@@EBEPAXPBD@Z 10001ebc f   live555:BasicHashTable.obj
 0001:00000ed9       ?numEntries@BasicHashTable@@EBEIXZ 10001ed9 f   live555:BasicHashTable.obj
 0001:00000edd       ??_GIterator@HashTable@@UAEPAXI@Z 10001edd f i live555:HashTable.obj
 0001:00000edd       ??_EIterator@HashTable@@UAEPAXI@Z 10001edd f i * CIL library *:* CIL module *
 0001:00000edd       ??_EIterator@BasicHashTable@@UAEPAXI@Z 10001edd f i * CIL library *:* CIL module *
 0001:00000edd       ??_GIterator@BasicHashTable@@UAEPAXI@Z 10001edd f i live555:BasicHashTable.obj
 0001:00000efd       ?next@Iterator@BasicHashTable@@EAEPAXAAPBD@Z 10001efd f   live555:BasicHashTable.obj
 0001:00000f45       ?create@HashTable@@SAPAV1@H@Z 10001f45 f   live555:BasicHashTable.obj
 0001:00000f96       ?create@Iterator@HashTable@@SAPAV12@ABV2@@Z 10001f96 f   live555:BasicHashTable.obj
 0001:00000fbd       ?lookupKey@BasicHashTable@@ABEPAVTableEntry@1@PBDAAI@Z 10001fbd f   live555:BasicHashTable.obj
 0001:00000ff8       ?keyMatches@BasicHashTable@@ABE_NPBD0@Z 10001ff8 f   live555:BasicHashTable.obj
 0001:00001070       ?insertNewEntry@BasicHashTable@@AAEPAVTableEntry@1@IPBD@Z 10002070 f   live555:BasicHashTable.obj
 0001:000010ba       ?assignKey@BasicHashTable@@AAEXPAVTableEntry@1@PBD@Z 100020ba f   live555:BasicHashTable.obj
 0001:0000112e       ?deleteEntry@BasicHashTable@@AAEXIPAVTableEntry@1@@Z 1000212e f   live555:BasicHashTable.obj
 0001:00001177       ?rebuild@BasicHashTable@@AAEXXZ 10002177 f   live555:BasicHashTable.obj
 0001:0000122c       ?hashIndexFromKey@BasicHashTable@@ABEIPBD@Z 1000222c f   live555:BasicHashTable.obj
 0001:00001287       ??1NoReuse@@QAE@XZ         10002287 f   live555:GroupsockHelper.obj
 0001:000012a0       ?groupsockPriv@@YAPAU_groupsockPriv@@AAVUsageEnvironment@@@Z 100022a0 f   live555:GroupsockHelper.obj
 0001:000012c4       ?reclaimGroupsockPriv@@YAXAAVUsageEnvironment@@@Z 100022c4 f   live555:GroupsockHelper.obj
 0001:000012e2       ?setupDatagramSocket@@YAHAAVUsageEnvironment@@VPort@@@Z 100022e2 f   live555:GroupsockHelper.obj
 0001:00001426       ?makeSocketNonBlocking@@YA_NH@Z 10002426 f   live555:GroupsockHelper.obj
 0001:0000144a       ?setupStreamSocket@@YAHAAVUsageEnvironment@@VPort@@_N@Z 1000244a f   live555:GroupsockHelper.obj
 0001:00001567       ?readSocket@@YAHAAVUsageEnvironment@@HPAEIAAUsockaddr_in@@@Z 10002567 f   live555:GroupsockHelper.obj
 0001:000015d6       ?writeSocket@@YA_NAAVUsageEnvironment@@HUin_addr@@VPort@@EPAEI@Z 100025d6 f   live555:GroupsockHelper.obj
 0001:00001737       ?socketJoinGroup@@YA_NAAVUsageEnvironment@@HI@Z 10002737 f   live555:GroupsockHelper.obj
 0001:00001797       ?socketLeaveGroup@@YA_NAAVUsageEnvironment@@HI@Z 10002797 f   live555:GroupsockHelper.obj
 0001:0000182d       ?getSourcePort@@YA_NAAVUsageEnvironment@@HAAVPort@@@Z 1000282d f   live555:GroupsockHelper.obj
 0001:000018e2       ?ourIPAddress@@YAIAAVUsageEnvironment@@@Z 100028e2 f   live555:GroupsockHelper.obj
 0001:00001b73       ?timestampString@@YAPBDXZ  10002b73 f   live555:GroupsockHelper.obj
 0001:00001bd9       ?gettimeofday@@YAHPAUtimeval@@PAH@Z 10002bd9 f   live555:GroupsockHelper.obj
 0001:00001d2f       ??_EHashTable@@UAEPAXI@Z   10002d2f f i * CIL library *:* CIL module *
 0001:00001d2f       ??_GHashTable@@UAEPAXI@Z   10002d2f f i live555:HashTable.obj
 0001:00001d4f       ?RemoveNext@HashTable@@QAEPAXXZ 10002d4f f   live555:HashTable.obj
 0001:00001d8b       ?strDup@@YAPADPBD@Z        10002d8b f   live555:strDup.obj
 0001:00001dc6       ?strDupSize@@YAPADPBD@Z    10002dc6 f   live555:strDup.obj
 0001:00001de5       _initializeWinsockIfNecessary 10002de5 f   live555:inet.obj
 0001:00001e72       _our_srandom               10002e72 f   live555:inet.obj
 0001:00001eb1       _our_random                10002eb1 f   live555:inet.obj
 0001:00001f11       _our_random32              10002f11 f   live555:inet.obj
 0001:00001f33       ??_ENetAddress@@UAEPAXI@Z  10002f33 f i * CIL library *:* CIL module *
 0001:00001f33       ??_GNetAddress@@UAEPAXI@Z  10002f33 f i live555:NetAddress.obj
 0001:00001f52       ??0NetAddress@@QAE@I@Z     10002f52 f   live555:NetAddress.obj
 0001:00001f8b       ??1NetAddress@@UAE@XZ      10002f8b f   live555:NetAddress.obj
 0001:00001fa7       ?assign@NetAddress@@AAEXPBEI@Z 10002fa7 f   live555:NetAddress.obj
 0001:00001fe7       ??0NetAddressList@@QAE@PBD@Z 10002fe7 f   live555:NetAddress.obj
 0001:00002128       ??_ENetAddressList@@UAEPAXI@Z 10003128 f i * CIL library *:* CIL module *
 0001:00002128       ??_GNetAddressList@@UAEPAXI@Z 10003128 f i live555:NetAddress.obj
 0001:0000214d       ??1NetAddressList@@UAE@XZ  1000314d f   live555:NetAddress.obj
 0001:00002158       ?clean@NetAddressList@@AAEXXZ 10003158 f   live555:NetAddress.obj
 0001:0000218b       ?Lookup@AddressPortLookupTable@@QAEPAXIIVPort@@@Z 1000318b f   live555:NetAddress.obj
 0001:000021ca       ??_EIterator@AddressPortLookupTable@@UAEPAXI@Z 100031ca f i * CIL library *:* CIL module *
 0001:000021ca       ??_GIterator@AddressPortLookupTable@@UAEPAXI@Z 100031ca f i live555:NetAddress.obj
 0001:000021e9       ??1Iterator@AddressPortLookupTable@@UAE@XZ 100031e9 f   live555:NetAddress.obj
 0001:000021fd       ?IsMulticastAddress@@YA_NI@Z 100031fd f   live555:NetAddress.obj
 0001:00002214       ??_EAddressString@@UAEPAXI@Z 10003214 f i * CIL library *:* CIL module *
 0001:00002214       ??_GAddressString@@UAEPAXI@Z 10003214 f i live555:NetAddress.obj
 0001:00002233       ?init@AddressString@@AAEXI@Z 10003233 f   live555:NetAddress.obj
 0001:00002281       ??1AddressString@@UAE@XZ   10003281 f   live555:NetAddress.obj
 0001:00002291       ??1_Ref_count_base@std@@UAE@XZ 10003291 f i odm-player:MetadataCollector.obj
 0001:00002298       ?_Decref@_Ref_count_base@std@@QAEXXZ 10003298 f i odm-player:MetadataCollector.obj
 0001:000022c4       ?_Get_deleter@_Ref_count_base@std@@UBEPAXABVtype_info@@@Z 100032c4 f i odm-player:MetadataCollector.obj
 0001:000022c9       ?Create@MetadataCollector@onvifmp@@SA?AV?$function@$$A6A?AV?$shared_ptr@VMetadataCollector@onvifmp@@@std@@PAVVirtualSink@onvifmp@@@Z@std@@XZ 100032c9 f   odm-player:MetadataCollector.obj
 0001:00002346       ?ProcessFrame@MetadataCollector@onvifmp@@MAEXPAEHUtimeval@@I@Z 10003346 f   odm-player:MetadataCollector.obj
 0001:000023b3       ??1?$function@$$A6AXPAXH_NH@Z@std@@QAE@XZ 100033b3 f i odm-player:MetadataCollector.obj
 0001:000023c3       ??4?$function@$$A6AXPAXH_NH@Z@std@@QAEAAV01@AAV01@@Z 100033c3 f i odm-player:MetadataCollector.obj
 0001:000023fa       ??1?$function@$$A6A?AV?$shared_ptr@VIFrameProcessor@onvifmp@@@std@@PAVVirtualSink@onvifmp@@@Z@std@@QAE@XZ 100033fa f i odm-player:Live555.obj
 0001:000023fa       ??1?$function@$$A6A?AV?$shared_ptr@VMetadataCollector@onvifmp@@@std@@PAVVirtualSink@onvifmp@@@Z@std@@QAE@XZ 100033fa f i odm-player:MetadataCollector.obj
 0001:000023fa       ??1?$function@$$A6A?AV?$shared_ptr@VVideoDecoder@onvifmp@@@std@@PAVVirtualSink@onvifmp@@@Z@std@@QAE@XZ 100033fa f i odm-player:Live555.obj
 0001:000023fa       ??1?$function@$$A6A?AV?$shared_ptr@VIVideoRenderer@onvifmp@@@std@@PAVVideoDecoder@onvifmp@@@Z@std@@QAE@XZ 100033fa f i odm-player:Live555.obj
 0001:0000241e       ??0?$shared_ptr@VMetadataCollector@onvifmp@@@std@@QAE@$$QAV01@@Z 1000341e f i odm-player:MetadataCollector.obj
 0001:0000241e       ??0?$shared_ptr@VVideoDecoder@onvifmp@@@std@@QAE@$$QAV01@@Z 1000341e f i odm-player:Live555.obj
 0001:0000244d       ??1?$shared_ptr@VVideoRenderer@onvifmp@@@std@@QAE@XZ 1000344d f i odm-player:Live555.obj
 0001:0000244d       ??1?$shared_ptr@VIFrameProcessor@onvifmp@@@std@@QAE@XZ 1000344d f i odm-player:Live555.obj
 0001:0000244d       ??1?$shared_ptr@VVideoDecoder@onvifmp@@@std@@QAE@XZ 1000344d f i odm-player:Live555.obj
 0001:0000244d       ??1?$shared_ptr@VMetadataCollector@onvifmp@@@std@@QAE@XZ 1000344d f i odm-player:MetadataCollector.obj
 0001:0000244d       ??1?$shared_ptr@VVideoBuffer@onvifmp@@@std@@QAE@XZ 1000344d f i odm-player:Live555.obj
 0001:00002459       ??1?$_Func_class@XPAXH_NH@std@@QAE@XZ 10003459 f i odm-player:MetadataCollector.obj
 0001:0000245e       ??1?$_Func_class@V?$shared_ptr@VVideoDecoder@onvifmp@@@std@@PAVVirtualSink@onvifmp@@@std@@QAE@XZ 1000345e f i odm-player:Live555.obj
 0001:0000245e       ??1?$_Func_class@V?$shared_ptr@VIVideoRenderer@onvifmp@@@std@@PAVVideoDecoder@onvifmp@@@std@@QAE@XZ 1000345e f i odm-player:Live555.obj
 0001:0000245e       ??1?$_Func_class@V?$shared_ptr@VMetadataCollector@onvifmp@@@std@@PAVVirtualSink@onvifmp@@@std@@QAE@XZ 1000345e f i odm-player:MetadataCollector.obj
 0001:0000245e       ?_Tidy@?$_Func_class@XPAXH_NH@std@@IAEXXZ 1000345e f i odm-player:MetadataCollector.obj
 0001:0000245e       ??1?$_Func_class@V?$shared_ptr@VIFrameProcessor@onvifmp@@@std@@PAVVirtualSink@onvifmp@@@std@@QAE@XZ 1000345e f i odm-player:Live555.obj
 0001:0000247c       ??_G?$_Func_base@V?$shared_ptr@VMetadataCollector@onvifmp@@@std@@PAVVirtualSink@onvifmp@@@std@@UAEPAXI@Z 1000347c f i odm-player:MetadataCollector.obj
 0001:0000247c       ??_G?$_Func_impl@U?$_Callable_obj@V<lambda_2f111f34529ba06998f18f1e2734b49b>@@$0A@@std@@V?$allocator@V?$_Func_class@V?$shared_ptr@VMetadataCollector@onvifmp@@@std@@PAVVirtualSink@onvifmp@@@std@@@2@V?$shared_ptr@VMetadataCollector@onvifmp@@@2@PAVVirtualSink@onvifmp@@@std@@UAEPAXI@Z 1000347c f i odm-player:MetadataCollector.obj
 0001:0000247c       ??_E?$_Func_base@V?$shared_ptr@VMetadataCollector@onvifmp@@@std@@PAVVirtualSink@onvifmp@@@std@@UAEPAXI@Z 1000347c f i * CIL library *:* CIL module *
 0001:0000247c       ??_E?$_Func_impl@U?$_Callable_obj@V<lambda_2f111f34529ba06998f18f1e2734b49b>@@$0A@@std@@V?$allocator@V?$_Func_class@V?$shared_ptr@VMetadataCollector@onvifmp@@@std@@PAVVirtualSink@onvifmp@@@std@@@2@V?$shared_ptr@VMetadataCollector@onvifmp@@@2@PAVVirtualSink@onvifmp@@@std@@UAEPAXI@Z 1000347c f i * CIL library *:* CIL module *
 0001:0000249c       ??$make_shared@VMetadataCollector@onvifmp@@$$$V@std@@YA?AV?$shared_ptr@VMetadataCollector@onvifmp@@@0@XZ 1000349c f i odm-player:MetadataCollector.obj
 0001:00002511       ?_Destroy@?$_Ref_count_obj@VMetadataCollector@onvifmp@@@std@@EAEXXZ 10003511 f i odm-player:MetadataCollector.obj
 0001:0000252b       ?_Delete_this@?$_Ref_count_obj@VVideoRenderer@onvifmp@@@std@@EAEXXZ 1000352b f i odm-player:Live555.obj
 0001:0000252b       ?_Delete_this@?$_Ref_count_obj@VVideoDecoder@onvifmp@@@std@@EAEXXZ 1000352b f i odm-player:Live555.obj
 0001:0000252b       ?_Delete_this@?$_Ref_count_obj@VMetadataCollector@onvifmp@@@std@@EAEXXZ 1000352b f i odm-player:MetadataCollector.obj
 0001:00002537       ??_E?$_Ref_count_obj@VMetadataCollector@onvifmp@@@std@@UAEPAXI@Z 10003537 f i * CIL library *:* CIL module *
 0001:00002537       ??_E?$_Ref_count_obj@VVideoRenderer@onvifmp@@@std@@UAEPAXI@Z 10003537 f i * CIL library *:* CIL module *
 0001:00002537       ??_G?$_Ref_count_obj@VVideoDecoder@onvifmp@@@std@@UAEPAXI@Z 10003537 f i odm-player:Live555.obj
 0001:00002537       ??_E?$_Ref_count_obj@VVideoDecoder@onvifmp@@@std@@UAEPAXI@Z 10003537 f i * CIL library *:* CIL module *
 0001:00002537       ??_G?$_Ref_count_obj@VVideoRenderer@onvifmp@@@std@@UAEPAXI@Z 10003537 f i odm-player:Live555.obj
 0001:00002537       ??_G?$_Ref_count_obj@VMetadataCollector@onvifmp@@@std@@UAEPAXI@Z 10003537 f i odm-player:MetadataCollector.obj
 0001:00002557       ?_Move@?$_Func_impl@U?$_Callable_obj@V<lambda_2f111f34529ba06998f18f1e2734b49b>@@$0A@@std@@V?$allocator@V?$_Func_class@V?$shared_ptr@VMetadataCollector@onvifmp@@@std@@PAVVirtualSink@onvifmp@@@std@@@2@V?$shared_ptr@VMetadataCollector@onvifmp@@@2@PAVVirtualSink@onvifmp@@@std@@UAEPAV?$_Func_base@V?$shared_ptr@VMetadataCollector@onvifmp@@@std@@PAVVirtualSink@onvifmp@@@2@PAX@Z 10003557 f i odm-player:MetadataCollector.obj
 0001:00002557       ?_Copy@?$_Func_impl@U?$_Callable_obj@V<lambda_2f111f34529ba06998f18f1e2734b49b>@@$0A@@std@@V?$allocator@V?$_Func_class@V?$shared_ptr@VMetadataCollector@onvifmp@@@std@@PAVVirtualSink@onvifmp@@@std@@@2@V?$shared_ptr@VMetadataCollector@onvifmp@@@2@PAVVirtualSink@onvifmp@@@std@@UAEPAV?$_Func_base@V?$shared_ptr@VMetadataCollector@onvifmp@@@std@@PAVVirtualSink@onvifmp@@@2@PAX@Z 10003557 f i odm-player:MetadataCollector.obj
 0001:00002588       ?_Do_call@?$_Func_impl@U?$_Callable_obj@V<lambda_2f111f34529ba06998f18f1e2734b49b>@@$0A@@std@@V?$allocator@V?$_Func_class@V?$shared_ptr@VMetadataCollector@onvifmp@@@std@@PAVVirtualSink@onvifmp@@@std@@@2@V?$shared_ptr@VMetadataCollector@onvifmp@@@2@PAVVirtualSink@onvifmp@@@std@@UAE?AV?$shared_ptr@VMetadataCollector@onvifmp@@@2@$$QAPAVVirtualSink@onvifmp@@@Z 10003588 f i odm-player:MetadataCollector.obj
 0001:000025a4       ?_Target_type@?$_Func_impl@U?$_Callable_obj@V<lambda_2f111f34529ba06998f18f1e2734b49b>@@$0A@@std@@V?$allocator@V?$_Func_class@V?$shared_ptr@VMetadataCollector@onvifmp@@@std@@PAVVirtualSink@onvifmp@@@std@@@2@V?$shared_ptr@VMetadataCollector@onvifmp@@@2@PAVVirtualSink@onvifmp@@@std@@UBEABVtype_info@@XZ 100035a4 f i odm-player:MetadataCollector.obj
 0001:000025aa       ?_Get@?$_Func_impl@U?$_Callable_obj@V<lambda_10aef3f9c20489329aef1d0346f46932>@@$0A@@std@@V?$allocator@V?$_Func_class@V?$shared_ptr@VIVideoRenderer@onvifmp@@@std@@PAVVideoDecoder@onvifmp@@@std@@@2@V?$shared_ptr@VIVideoRenderer@onvifmp@@@2@PAVVideoDecoder@onvifmp@@@std@@EBEPBXXZ 100035aa f i odm-player:Live555.obj
 0001:000025aa       ?_Get@?$_Func_impl@U?$_Callable_obj@V<lambda_2f111f34529ba06998f18f1e2734b49b>@@$0A@@std@@V?$allocator@V?$_Func_class@V?$shared_ptr@VMetadataCollector@onvifmp@@@std@@PAVVirtualSink@onvifmp@@@std@@@2@V?$shared_ptr@VMetadataCollector@onvifmp@@@2@PAVVirtualSink@onvifmp@@@std@@EBEPBXXZ 100035aa f i odm-player:MetadataCollector.obj
 0001:000025aa       ?_Get@?$_Func_impl@U?$_Callable_obj@V<lambda_6f17768ec1e816bdad31c3395b38e95e>@@$0A@@std@@V?$allocator@V?$_Func_class@V?$shared_ptr@VVideoDecoder@onvifmp@@@std@@PAVVirtualSink@onvifmp@@@std@@@2@V?$shared_ptr@VVideoDecoder@onvifmp@@@2@PAVVirtualSink@onvifmp@@@std@@EBEPBXXZ 100035aa f i odm-player:Live555.obj
 0001:000025ae       ?_Delete_this@?$_Func_impl@U?$_Callable_obj@V<lambda_02633da78dd085cd30a2d2935e5e427d>@@$0A@@std@@V?$allocator@V?$_Func_class@V?$shared_ptr@VIFrameProcessor@onvifmp@@@std@@PAVVirtualSink@onvifmp@@@std@@@2@V?$shared_ptr@VIFrameProcessor@onvifmp@@@2@PAVVirtualSink@onvifmp@@@std@@EAEX_N@Z 100035ae f i odm-player:Live555.obj
 0001:000025ae       ?_Delete_this@?$_Func_impl@U?$_Callable_obj@V<lambda_10aef3f9c20489329aef1d0346f46932>@@$0A@@std@@V?$allocator@V?$_Func_class@V?$shared_ptr@VIVideoRenderer@onvifmp@@@std@@PAVVideoDecoder@onvifmp@@@std@@@2@V?$shared_ptr@VIVideoRenderer@onvifmp@@@2@PAVVideoDecoder@onvifmp@@@std@@EAEX_N@Z 100035ae f i odm-player:Live555.obj
 0001:000025ae       ?_Delete_this@?$_Func_impl@U?$_Callable_obj@V<lambda_de1d15fe10d4d9865796d6851c4d8d4d>@@$0A@@std@@V?$allocator@V?$_Func_class@V?$shared_ptr@VIFrameProcessor@onvifmp@@@std@@PAVVirtualSink@onvifmp@@@std@@@2@V?$shared_ptr@VIFrameProcessor@onvifmp@@@2@PAVVirtualSink@onvifmp@@@std@@EAEX_N@Z 100035ae f i odm-player:Live555.obj
 0001:000025ae       ?_Delete_this@?$_Func_impl@U?$_Callable_obj@V<lambda_2f111f34529ba06998f18f1e2734b49b>@@$0A@@std@@V?$allocator@V?$_Func_class@V?$shared_ptr@VMetadataCollector@onvifmp@@@std@@PAVVirtualSink@onvifmp@@@std@@@2@V?$shared_ptr@VMetadataCollector@onvifmp@@@2@PAVVirtualSink@onvifmp@@@std@@EAEX_N@Z 100035ae f i odm-player:MetadataCollector.obj
 0001:000025ae       ?_Delete_this@?$_Func_impl@U?$_Callable_obj@V<lambda_6f17768ec1e816bdad31c3395b38e95e>@@$0A@@std@@V?$allocator@V?$_Func_class@V?$shared_ptr@VVideoDecoder@onvifmp@@@std@@PAVVirtualSink@onvifmp@@@std@@@2@V?$shared_ptr@VVideoDecoder@onvifmp@@@2@PAVVirtualSink@onvifmp@@@std@@EAEX_N@Z 100035ae f i odm-player:Live555.obj
 0001:000025cd       ??$_ApplyX@V?$shared_ptr@VMetadataCollector@onvifmp@@@std@@PAVVirtualSink@onvifmp@@@?$_Callable_obj@V<lambda_2f111f34529ba06998f18f1e2734b49b>@@$0A@@std@@QAE?AV?$shared_ptr@VMetadataCollector@onvifmp@@@1@$$QAPAVVirtualSink@onvifmp@@@Z 100035cd f i odm-player:MetadataCollector.obj
 0001:000025eb       ??_EAuthenticator@@UAEPAXI@Z 100035eb f i * CIL library *:* CIL module *
 0001:000025eb       ??_GAuthenticator@@UAEPAXI@Z 100035eb f i live555:DigestAuthentication.obj
 0001:0000260a       ??0Authenticator@@$$FQAE@PBD0_N@Z 1000360a f   * CIL library *:* CIL module *
 0001:0000260a       ??0Authenticator@@QAE@PBD0_N@Z 1000360a f   live555:DigestAuthentication.obj
 0001:0000262f       ??4Authenticator@@QAEAAV0@ABV0@@Z 1000362f f   live555:DigestAuthentication.obj
 0001:00002669       ??1Authenticator@@UAE@XZ   10003669 f   live555:DigestAuthentication.obj
 0001:0000267f       ?computeDigestResponse@Authenticator@@QBEPBDPBD0@Z 1000367f f   live555:DigestAuthentication.obj
 0001:000027e6       ?resetRealmAndNonce@Authenticator@@AAEXXZ 100037e6 f   live555:DigestAuthentication.obj
 0001:00002805       ?resetUsernameAndPassword@Authenticator@@AAEXXZ 10003805 f   live555:DigestAuthentication.obj
 0001:00002828       ?assignRealmAndNonce@Authenticator@@AAEXPBD0@Z 10003828 f   live555:DigestAuthentication.obj
 0001:00002849       ?assign@Authenticator@@AAEXPBD000_N@Z 10003849 f   live555:DigestAuthentication.obj
 0001:0000287b       _our_MD5End                1000387b f   live555:our_md5hl.obj
 0001:000028ec       _our_MD5Data               100038ec f   live555:our_md5hl.obj
 0001:00003077       _ourMD5Update              10004077 f   live555:our_md5.obj
 0001:0000311a       _our_MD5Final              1000411a f   live555:our_md5.obj
 0001:00003199       ??1SPropRecord@@QAE@XZ     10004199 f i odm-player:Live555.obj
 0001:000031a3       ?CreateNew@VirtualSink@onvifmp@@SAPAV12@AAVUsageEnvironment@@I@Z 100041a3 f i odm-player:Live555.obj
 0001:000031eb       ?AddFrameProcessor@VirtualSink@onvifmp@@QAEXV?$function@$$A6A?AV?$shared_ptr@VIFrameProcessor@onvifmp@@@std@@PAVVirtualSink@onvifmp@@@Z@std@@@Z 100041eb f i odm-player:Live555.obj
 0001:00003260       ??0VirtualSink@onvifmp@@IAE@AAVUsageEnvironment@@I@Z 10004260 f i odm-player:Live555.obj
 0001:000032c5       ??1VirtualSink@onvifmp@@MAE@XZ 100042c5 f i odm-player:Live555.obj
 0001:000032f9       ?continuePlaying@VirtualSink@onvifmp@@MAE_NXZ 100042f9 f i odm-player:Live555.obj
 0001:0000331f       ?AfterGettingFrame@VirtualSink@onvifmp@@MAEXIIUtimeval@@I@Z 1000431f f i odm-player:Live555.obj
 0001:00003373       ??_EVirtualSink@onvifmp@@MAEPAXI@Z 10004373 f i * CIL library *:* CIL module *
 0001:00003373       ??_GVirtualSink@onvifmp@@MAEPAXI@Z 10004373 f i odm-player:Live555.obj
 0001:00003392       ?CreateNew@H264VirtualSink@onvifmp@@SAPAV12@AAVUsageEnvironment@@I@Z 10004392 f i odm-player:Live555.obj
 0001:000033f5       ??1H264VirtualSink@onvifmp@@MAE@XZ 100043f5 f i odm-player:Live555.obj
 0001:00003408       ?AfterGettingFrame@H264VirtualSink@onvifmp@@MAEXIIUtimeval@@I@Z 10004408 f i odm-player:Live555.obj
 0001:00003477       ??_EH264VirtualSink@onvifmp@@MAEPAXI@Z 10004477 f i * CIL library *:* CIL module *
 0001:00003477       ??_GH264VirtualSink@onvifmp@@MAEPAXI@Z 10004477 f i odm-player:Live555.obj
 0001:00003496       ?Create@VideoDecoder@onvifmp@@SA?AV?$function@$$A6A?AV?$shared_ptr@VVideoDecoder@onvifmp@@@std@@PAVVirtualSink@onvifmp@@@Z@std@@W4CodecID@@PBD@Z 10004496 f i odm-player:Live555.obj
 0001:000034c0       ?Init@VideoDecoder@onvifmp@@QAE_NPAVVirtualSink@2@PAUAVCodec@@PBD@Z 100044c0 f i odm-player:Live555.obj
 0001:000035f2       ?Cleanup@VideoDecoder@onvifmp@@QAEXXZ 100045f2 f i odm-player:Live555.obj
 0001:0000362d       ?AddExtraData@VideoDecoder@onvifmp@@IAEXPAEH@Z 1000462d f i odm-player:Live555.obj
 0001:00003676       ?ProcessFrame@VideoDecoder@onvifmp@@MAEXPAEHUtimeval@@I@Z 10004676 f i odm-player:Live555.obj
 0001:000037a8       ?Create@VideoRenderer@onvifmp@@SA?AV?$function@$$A6A?AV?$shared_ptr@VIVideoRenderer@onvifmp@@@std@@PAVVideoDecoder@onvifmp@@@Z@std@@V?$shared_ptr@VVideoBuffer@onvifmp@@@4@@Z 100047a8 f i odm-player:Live555.obj
 0001:00003809       ?RenderFrame@VideoRenderer@onvifmp@@MAEXPAUAVCodecContext@@PAUAVFrame@@@Z 10004809 f i odm-player:Live555.obj
 0001:000038eb       ??0Live555@onvifmp@@$$FQAE@XZ 100048eb f   * CIL library *:* CIL module *
 0001:000038eb       ??0Live555@onvifmp@@QAE@XZ 100048eb f   odm-player:Live555.obj
 0001:0000390c       ??1Live555@onvifmp@@QAE@XZ 1000490c f   odm-player:Live555.obj
 0001:0000390c       ??1Live555@onvifmp@@$$FQAE@XZ 1000490c f   * CIL library *:* CIL module *
 0001:0000392e       ?SetVideoOutput@Live555@onvifmp@@QAEXV?$shared_ptr@VVideoBuffer@onvifmp@@@std@@@Z 1000492e f   odm-player:Live555.obj
 0001:0000392e       ?SetVideoOutput@Live555@onvifmp@@$$FQAEXV?$shared_ptr@VVideoBuffer@onvifmp@@@std@@@Z 1000492e f   * CIL library *:* CIL module *
 0001:0000394d       ?SetMetadataOutput@Live555@onvifmp@@$$FQAEXV?$function@$$A6AXPAXH_NH@Z@std@@@Z 1000494d f   * CIL library *:* CIL module *
 0001:0000394d       ?SetMetadataOutput@Live555@onvifmp@@QAEXV?$function@$$A6AXPAXH_NH@Z@std@@@Z 1000494d f   odm-player:Live555.obj
 0001:00003985       ?Run@Live555@onvifmp@@QAEXPAVMediaStreamInfo@2@PAVIPlaybackController@2@@Z 10004985 f   odm-player:Live555.obj
 0001:00003985       ?Run@Live555@onvifmp@@$$FQAEXPAVMediaStreamInfo@2@PAVIPlaybackController@2@@Z 10004985 f   * CIL library *:* CIL module *
 0001:00003a1b       ?InitVideoSubsession@Live555@onvifmp@@IAE?AV?$function@$$A6A?AV?$shared_ptr@VIFrameProcessor@onvifmp@@@std@@PAVVirtualSink@onvifmp@@@Z@std@@W4CodecID@@PBD@Z 10004a1b f   odm-player:Live555.obj
 0001:00003bc0       ?InitMetadataSubsession@Live555@onvifmp@@IAE?AV?$function@$$A6A?AV?$shared_ptr@VIFrameProcessor@onvifmp@@@std@@PAVVirtualSink@onvifmp@@@Z@std@@PBD@Z 10004bc0 f   odm-player:Live555.obj
 0001:00003cd9       ?InitSubsession@Live555@onvifmp@@IAE?AV?$function@$$A6A?AV?$shared_ptr@VIFrameProcessor@onvifmp@@@std@@PAVVirtualSink@onvifmp@@@Z@std@@PBD0@Z 10004cd9 f   odm-player:Live555.obj
 0001:00003d83       ?SetupSubsession@Live555@onvifmp@@IAEXPAVMediaStreamInfo@2@PAVMediaSubsession@@@Z 10004d83 f   odm-player:Live555.obj
 0001:00003ebd       ?Init@Live555@onvifmp@@IAE_NPAVMediaStreamInfo@2@@Z 10004ebd f   odm-player:Live555.obj
 0001:00004161       ?Cleanup@Live555@onvifmp@@IAEXXZ 10005161 f   odm-player:Live555.obj
 0001:00004211       ??4?$shared_ptr@VIFrameProcessor@onvifmp@@@std@@QAEAAV01@$$QAV01@@Z 10005211 f i odm-player:Live555.obj
 0001:00004211       ??4?$shared_ptr@VIVideoRenderer@onvifmp@@@std@@QAEAAV01@$$QAV01@@Z 10005211 f i odm-player:Live555.obj
 0001:0000424e       ??R?$_Func_class@V?$shared_ptr@VIFrameProcessor@onvifmp@@@std@@PAVVirtualSink@onvifmp@@@std@@QBE?AV?$shared_ptr@VIFrameProcessor@onvifmp@@@1@PAVVirtualSink@onvifmp@@@Z 1000524e f i odm-player:Live555.obj
 0001:0000424e       ??R?$_Func_class@V?$shared_ptr@VIVideoRenderer@onvifmp@@@std@@PAVVideoDecoder@onvifmp@@@std@@QBE?AV?$shared_ptr@VIVideoRenderer@onvifmp@@@1@PAVVideoDecoder@onvifmp@@@Z 1000524e f i odm-player:Live555.obj
 0001:0000424e       ??R?$_Func_class@V?$shared_ptr@VVideoDecoder@onvifmp@@@std@@PAVVirtualSink@onvifmp@@@std@@QBE?AV?$shared_ptr@VVideoDecoder@onvifmp@@@1@PAVVirtualSink@onvifmp@@@Z 1000524e f i odm-player:Live555.obj
 0001:0000424e       ??R?$_Func_class@V?$shared_ptr@VMetadataCollector@onvifmp@@@std@@PAVVirtualSink@onvifmp@@@std@@QBE?AV?$shared_ptr@VMetadataCollector@onvifmp@@@1@PAVVirtualSink@onvifmp@@@Z 1000524e f i odm-player:Live555.obj
 0001:00004278       ??0?$function@$$A6A?AV?$shared_ptr@VVideoDecoder@onvifmp@@@std@@PAVVirtualSink@onvifmp@@@Z@std@@QAE@ABV01@@Z 10005278 f i odm-player:Live555.obj
 0001:00004278       ??0?$function@$$A6A?AV?$shared_ptr@VIVideoRenderer@onvifmp@@@std@@PAVVideoDecoder@onvifmp@@@Z@std@@QAE@ABV01@@Z 10005278 f i odm-player:Live555.obj
 0001:00004278       ??0?$function@$$A6A?AV?$shared_ptr@VMetadataCollector@onvifmp@@@std@@PAVVirtualSink@onvifmp@@@Z@std@@QAE@ABV01@@Z 10005278 f i odm-player:Live555.obj
 0001:000042b9       ??0?$shared_ptr@VVideoBuffer@onvifmp@@@std@@QAE@ABV01@@Z 100052b9 f i odm-player:Live555.obj
 0001:000042f8       ??4?$shared_ptr@VVideoBuffer@onvifmp@@@std@@QAEAAV01@ABV01@@Z 100052f8 f i odm-player:Live555.obj
 0001:00004338       ??1?$_Func_base@V?$shared_ptr@VIFrameProcessor@onvifmp@@@std@@PAVVirtualSink@onvifmp@@@std@@UAE@XZ 10005338 f i odm-player:Live555.obj
 0001:0000433f       ??_E?$_Func_base@V?$shared_ptr@VIFrameProcessor@onvifmp@@@std@@PAVVirtualSink@onvifmp@@@std@@UAEPAXI@Z 1000533f f i * CIL library *:* CIL module *
 0001:0000433f       ??_G?$_Func_base@V?$shared_ptr@VIFrameProcessor@onvifmp@@@std@@PAVVirtualSink@onvifmp@@@std@@UAEPAXI@Z 1000533f f i odm-player:Live555.obj
 0001:0000435f       ??_G?$_Func_impl@U?$_Callable_obj@V<lambda_6f17768ec1e816bdad31c3395b38e95e>@@$0A@@std@@V?$allocator@V?$_Func_class@V?$shared_ptr@VVideoDecoder@onvifmp@@@std@@PAVVirtualSink@onvifmp@@@std@@@2@V?$shared_ptr@VVideoDecoder@onvifmp@@@2@PAVVirtualSink@onvifmp@@@std@@UAEPAXI@Z 1000535f f i odm-player:Live555.obj
 0001:0000435f       ??_E?$_Func_impl@U?$_Callable_obj@V<lambda_6f17768ec1e816bdad31c3395b38e95e>@@$0A@@std@@V?$allocator@V?$_Func_class@V?$shared_ptr@VVideoDecoder@onvifmp@@@std@@PAVVirtualSink@onvifmp@@@std@@@2@V?$shared_ptr@VVideoDecoder@onvifmp@@@2@PAVVirtualSink@onvifmp@@@std@@UAEPAXI@Z 1000535f f i * CIL library *:* CIL module *
 0001:0000435f       ??_G?$_Func_base@V?$shared_ptr@VVideoDecoder@onvifmp@@@std@@PAVVirtualSink@onvifmp@@@std@@UAEPAXI@Z 1000535f f i odm-player:Live555.obj
 0001:0000435f       ??_E?$_Func_base@V?$shared_ptr@VVideoDecoder@onvifmp@@@std@@PAVVirtualSink@onvifmp@@@std@@UAEPAXI@Z 1000535f f i * CIL library *:* CIL module *
 0001:0000437f       ??_E?$_Func_base@V?$shared_ptr@VIVideoRenderer@onvifmp@@@std@@PAVVideoDecoder@onvifmp@@@std@@UAEPAXI@Z 1000537f f i * CIL library *:* CIL module *
 0001:0000437f       ??_G?$_Func_base@V?$shared_ptr@VIVideoRenderer@onvifmp@@@std@@PAVVideoDecoder@onvifmp@@@std@@UAEPAXI@Z 1000537f f i odm-player:Live555.obj
 0001:0000439f       ??$make_shared@VVideoDecoder@onvifmp@@$$$V@std@@YA?AV?$shared_ptr@VVideoDecoder@onvifmp@@@0@XZ 1000539f f i odm-player:Live555.obj
 0001:00004413       ??$make_shared@VVideoRenderer@onvifmp@@ABV?$shared_ptr@VVideoBuffer@onvifmp@@@std@@@std@@YA?AV?$shared_ptr@VVideoRenderer@onvifmp@@@0@ABV?$shared_ptr@VVideoBuffer@onvifmp@@@0@@Z 10005413 f i odm-player:Live555.obj
 0001:00004455       ??$?0V<lambda_02633da78dd085cd30a2d2935e5e427d>@@@?$function@$$A6A?AV?$shared_ptr@VIFrameProcessor@onvifmp@@@std@@PAVVirtualSink@onvifmp@@@Z@std@@QAE@$$QAV<lambda_02633da78dd085cd30a2d2935e5e427d>@@@Z 10005455 f i odm-player:Live555.obj
 0001:000044b0       ?_Destroy@?$_Ref_count_obj@VVideoDecoder@onvifmp@@@std@@EAEXXZ 100054b0 f i odm-player:Live555.obj
 0001:000044d1       ?_Destroy@?$_Ref_count_obj@VVideoRenderer@onvifmp@@@std@@EAEXXZ 100054d1 f i odm-player:Live555.obj
 0001:000044e4       ??$?0ABV?$shared_ptr@VVideoBuffer@onvifmp@@@std@@@?$_Ref_count_obj@VVideoRenderer@onvifmp@@@std@@QAE@ABV?$shared_ptr@VVideoBuffer@onvifmp@@@1@@Z 100054e4 f i odm-player:Live555.obj
 0001:0000453d       ?_Reset@?$_Ptr_base@VIFrameProcessor@onvifmp@@@std@@QAEXPAVIFrameProcessor@onvifmp@@PAV_Ref_count_base@2@@Z 1000553d f i odm-player:Live555.obj
 0001:0000456f       ?_Move@?$_Func_impl@U?$_Callable_obj@V<lambda_6f17768ec1e816bdad31c3395b38e95e>@@$0A@@std@@V?$allocator@V?$_Func_class@V?$shared_ptr@VVideoDecoder@onvifmp@@@std@@PAVVirtualSink@onvifmp@@@std@@@2@V?$shared_ptr@VVideoDecoder@onvifmp@@@2@PAVVirtualSink@onvifmp@@@std@@UAEPAV?$_Func_base@V?$shared_ptr@VVideoDecoder@onvifmp@@@std@@PAVVirtualSink@onvifmp@@@2@PAX@Z 1000556f f i odm-player:Live555.obj
 0001:0000456f       ?_Copy@?$_Func_impl@U?$_Callable_obj@V<lambda_6f17768ec1e816bdad31c3395b38e95e>@@$0A@@std@@V?$allocator@V?$_Func_class@V?$shared_ptr@VVideoDecoder@onvifmp@@@std@@PAVVirtualSink@onvifmp@@@std@@@2@V?$shared_ptr@VVideoDecoder@onvifmp@@@2@PAVVirtualSink@onvifmp@@@std@@UAEPAV?$_Func_base@V?$shared_ptr@VVideoDecoder@onvifmp@@@std@@PAVVirtualSink@onvifmp@@@2@PAX@Z 1000556f f i odm-player:Live555.obj
 0001:000045a6       ?_Do_call@?$_Func_impl@U?$_Callable_obj@V<lambda_6f17768ec1e816bdad31c3395b38e95e>@@$0A@@std@@V?$allocator@V?$_Func_class@V?$shared_ptr@VVideoDecoder@onvifmp@@@std@@PAVVirtualSink@onvifmp@@@std@@@2@V?$shared_ptr@VVideoDecoder@onvifmp@@@2@PAVVirtualSink@onvifmp@@@std@@UAE?AV?$shared_ptr@VVideoDecoder@onvifmp@@@2@$$QAPAVVirtualSink@onvifmp@@@Z 100055a6 f i odm-player:Live555.obj
 0001:000045c3       ?_Target_type@?$_Func_impl@U?$_Callable_obj@V<lambda_6f17768ec1e816bdad31c3395b38e95e>@@$0A@@std@@V?$allocator@V?$_Func_class@V?$shared_ptr@VVideoDecoder@onvifmp@@@std@@PAVVirtualSink@onvifmp@@@std@@@2@V?$shared_ptr@VVideoDecoder@onvifmp@@@2@PAVVirtualSink@onvifmp@@@std@@UBEABVtype_info@@XZ 100055c3 f i odm-player:Live555.obj
 0001:000045c9       ?_Move@?$_Func_impl@U?$_Callable_obj@V<lambda_10aef3f9c20489329aef1d0346f46932>@@$0A@@std@@V?$allocator@V?$_Func_class@V?$shared_ptr@VIVideoRenderer@onvifmp@@@std@@PAVVideoDecoder@onvifmp@@@std@@@2@V?$shared_ptr@VIVideoRenderer@onvifmp@@@2@PAVVideoDecoder@onvifmp@@@std@@UAEPAV?$_Func_base@V?$shared_ptr@VIVideoRenderer@onvifmp@@@std@@PAVVideoDecoder@onvifmp@@@2@PAX@Z 100055c9 f i odm-player:Live555.obj
 0001:000045c9       ?_Copy@?$_Func_impl@U?$_Callable_obj@V<lambda_10aef3f9c20489329aef1d0346f46932>@@$0A@@std@@V?$allocator@V?$_Func_class@V?$shared_ptr@VIVideoRenderer@onvifmp@@@std@@PAVVideoDecoder@onvifmp@@@std@@@2@V?$shared_ptr@VIVideoRenderer@onvifmp@@@2@PAVVideoDecoder@onvifmp@@@std@@UAEPAV?$_Func_base@V?$shared_ptr@VIVideoRenderer@onvifmp@@@std@@PAVVideoDecoder@onvifmp@@@2@PAX@Z 100055c9 f i odm-player:Live555.obj
 0001:00004606       ??1?$_Func_impl@U?$_Callable_obj@V<lambda_10aef3f9c20489329aef1d0346f46932>@@$0A@@std@@V?$allocator@V?$_Func_class@V?$shared_ptr@VIVideoRenderer@onvifmp@@@std@@PAVVideoDecoder@onvifmp@@@std@@@2@V?$shared_ptr@VIVideoRenderer@onvifmp@@@2@PAVVideoDecoder@onvifmp@@@std@@UAE@XZ 10005606 f i odm-player:Live555.obj
 0001:00004623       ?_Do_call@?$_Func_impl@U?$_Callable_obj@V<lambda_10aef3f9c20489329aef1d0346f46932>@@$0A@@std@@V?$allocator@V?$_Func_class@V?$shared_ptr@VIVideoRenderer@onvifmp@@@std@@PAVVideoDecoder@onvifmp@@@std@@@2@V?$shared_ptr@VIVideoRenderer@onvifmp@@@2@PAVVideoDecoder@onvifmp@@@std@@UAE?AV?$shared_ptr@VIVideoRenderer@onvifmp@@@2@$$QAPAVVideoDecoder@onvifmp@@@Z 10005623 f i odm-player:Live555.obj
 0001:00004640       ?_Target_type@?$_Func_impl@U?$_Callable_obj@V<lambda_10aef3f9c20489329aef1d0346f46932>@@$0A@@std@@V?$allocator@V?$_Func_class@V?$shared_ptr@VIVideoRenderer@onvifmp@@@std@@PAVVideoDecoder@onvifmp@@@std@@@2@V?$shared_ptr@VIVideoRenderer@onvifmp@@@2@PAVVideoDecoder@onvifmp@@@std@@UBEABVtype_info@@XZ 10005640 f i odm-player:Live555.obj
 0001:00004646       ??0?$_Func_impl@U?$_Callable_obj@V<lambda_de1d15fe10d4d9865796d6851c4d8d4d>@@$0A@@std@@V?$allocator@V?$_Func_class@V?$shared_ptr@VIFrameProcessor@onvifmp@@@std@@PAVVirtualSink@onvifmp@@@std@@@2@V?$shared_ptr@VIFrameProcessor@onvifmp@@@2@PAVVirtualSink@onvifmp@@@std@@QAE@$$QAV<lambda_de1d15fe10d4d9865796d6851c4d8d4d>@@ABV?$allocator@V?$_Func_impl@U?$_Callable_obj@V<lambda_de1d15fe10d4d9865796d6851c4d8d4d>@@$0A@@std@@V?$allocator@V?$_Func_class@V?$shared_ptr@VIFrameProcessor@onvifmp@@@std@@PAVVirtualSink@onvifmp@@@std@@@2@V?$shared_ptr@VIFrameProcessor@onvifmp@@@2@PAVVirtualSink@onvifmp@@@std@@@1@@Z 10005646 f i odm-player:Live555.obj
 0001:0000468c       ?_Move@?$_Func_impl@U?$_Callable_obj@V<lambda_de1d15fe10d4d9865796d6851c4d8d4d>@@$0A@@std@@V?$allocator@V?$_Func_class@V?$shared_ptr@VIFrameProcessor@onvifmp@@@std@@PAVVirtualSink@onvifmp@@@std@@@2@V?$shared_ptr@VIFrameProcessor@onvifmp@@@2@PAVVirtualSink@onvifmp@@@std@@UAEPAV?$_Func_base@V?$shared_ptr@VIFrameProcessor@onvifmp@@@std@@PAVVirtualSink@onvifmp@@@2@PAX@Z 1000568c f i odm-player:Live555.obj
 0001:0000468c       ?_Copy@?$_Func_impl@U?$_Callable_obj@V<lambda_de1d15fe10d4d9865796d6851c4d8d4d>@@$0A@@std@@V?$allocator@V?$_Func_class@V?$shared_ptr@VIFrameProcessor@onvifmp@@@std@@PAVVirtualSink@onvifmp@@@std@@@2@V?$shared_ptr@VIFrameProcessor@onvifmp@@@2@PAVVirtualSink@onvifmp@@@std@@UAEPAV?$_Func_base@V?$shared_ptr@VIFrameProcessor@onvifmp@@@std@@PAVVirtualSink@onvifmp@@@2@PAX@Z 1000568c f i odm-player:Live555.obj
 0001:000046f6       ??1?$_Func_impl@U?$_Callable_obj@V<lambda_de1d15fe10d4d9865796d6851c4d8d4d>@@$0A@@std@@V?$allocator@V?$_Func_class@V?$shared_ptr@VIFrameProcessor@onvifmp@@@std@@PAVVirtualSink@onvifmp@@@std@@@2@V?$shared_ptr@VIFrameProcessor@onvifmp@@@2@PAVVirtualSink@onvifmp@@@std@@UAE@XZ 100056f6 f i odm-player:Live555.obj
 0001:00004719       ?_Do_call@?$_Func_impl@U?$_Callable_obj@V<lambda_de1d15fe10d4d9865796d6851c4d8d4d>@@$0A@@std@@V?$allocator@V?$_Func_class@V?$shared_ptr@VIFrameProcessor@onvifmp@@@std@@PAVVirtualSink@onvifmp@@@std@@@2@V?$shared_ptr@VIFrameProcessor@onvifmp@@@2@PAVVirtualSink@onvifmp@@@std@@UAE?AV?$shared_ptr@VIFrameProcessor@onvifmp@@@2@$$QAPAVVirtualSink@onvifmp@@@Z 10005719 f i odm-player:Live555.obj
 0001:00004738       ?_Target_type@?$_Func_impl@U?$_Callable_obj@V<lambda_de1d15fe10d4d9865796d6851c4d8d4d>@@$0A@@std@@V?$allocator@V?$_Func_class@V?$shared_ptr@VIFrameProcessor@onvifmp@@@std@@PAVVirtualSink@onvifmp@@@std@@@2@V?$shared_ptr@VIFrameProcessor@onvifmp@@@2@PAVVirtualSink@onvifmp@@@std@@UBEABVtype_info@@XZ 10005738 f i odm-player:Live555.obj
 0001:0000473e       ?_Get@?$_Func_impl@U?$_Callable_obj@V<lambda_de1d15fe10d4d9865796d6851c4d8d4d>@@$0A@@std@@V?$allocator@V?$_Func_class@V?$shared_ptr@VIFrameProcessor@onvifmp@@@std@@PAVVirtualSink@onvifmp@@@std@@@2@V?$shared_ptr@VIFrameProcessor@onvifmp@@@2@PAVVirtualSink@onvifmp@@@std@@EBEPBXXZ 1000573e f i odm-player:Live555.obj
 0001:0000473e       ?_Get@?$_Func_impl@U?$_Callable_obj@V<lambda_02633da78dd085cd30a2d2935e5e427d>@@$0A@@std@@V?$allocator@V?$_Func_class@V?$shared_ptr@VIFrameProcessor@onvifmp@@@std@@PAVVirtualSink@onvifmp@@@std@@@2@V?$shared_ptr@VIFrameProcessor@onvifmp@@@2@PAVVirtualSink@onvifmp@@@std@@EBEPBXXZ 1000573e f i odm-player:Live555.obj
 0001:00004742       ?_Copy@?$_Func_impl@U?$_Callable_obj@V<lambda_02633da78dd085cd30a2d2935e5e427d>@@$0A@@std@@V?$allocator@V?$_Func_class@V?$shared_ptr@VIFrameProcessor@onvifmp@@@std@@PAVVirtualSink@onvifmp@@@std@@@2@V?$shared_ptr@VIFrameProcessor@onvifmp@@@2@PAVVirtualSink@onvifmp@@@std@@UAEPAV?$_Func_base@V?$shared_ptr@VIFrameProcessor@onvifmp@@@std@@PAVVirtualSink@onvifmp@@@2@PAX@Z 10005742 f i odm-player:Live555.obj
 0001:00004742       ?_Move@?$_Func_impl@U?$_Callable_obj@V<lambda_02633da78dd085cd30a2d2935e5e427d>@@$0A@@std@@V?$allocator@V?$_Func_class@V?$shared_ptr@VIFrameProcessor@onvifmp@@@std@@PAVVirtualSink@onvifmp@@@std@@@2@V?$shared_ptr@VIFrameProcessor@onvifmp@@@2@PAVVirtualSink@onvifmp@@@std@@UAEPAV?$_Func_base@V?$shared_ptr@VIFrameProcessor@onvifmp@@@std@@PAVVirtualSink@onvifmp@@@2@PAX@Z 10005742 f i odm-player:Live555.obj
 0001:0000479d       ??1?$_Func_impl@U?$_Callable_obj@V<lambda_02633da78dd085cd30a2d2935e5e427d>@@$0A@@std@@V?$allocator@V?$_Func_class@V?$shared_ptr@VIFrameProcessor@onvifmp@@@std@@PAVVirtualSink@onvifmp@@@std@@@2@V?$shared_ptr@VIFrameProcessor@onvifmp@@@2@PAVVirtualSink@onvifmp@@@std@@UAE@XZ 1000579d f i odm-player:Live555.obj
 0001:000047b6       ?_Do_call@?$_Func_impl@U?$_Callable_obj@V<lambda_02633da78dd085cd30a2d2935e5e427d>@@$0A@@std@@V?$allocator@V?$_Func_class@V?$shared_ptr@VIFrameProcessor@onvifmp@@@std@@PAVVirtualSink@onvifmp@@@std@@@2@V?$shared_ptr@VIFrameProcessor@onvifmp@@@2@PAVVirtualSink@onvifmp@@@std@@UAE?AV?$shared_ptr@VIFrameProcessor@onvifmp@@@2@$$QAPAVVirtualSink@onvifmp@@@Z 100057b6 f i odm-player:Live555.obj
 0001:000047d5       ?_Target_type@?$_Func_impl@U?$_Callable_obj@V<lambda_02633da78dd085cd30a2d2935e5e427d>@@$0A@@std@@V?$allocator@V?$_Func_class@V?$shared_ptr@VIFrameProcessor@onvifmp@@@std@@PAVVirtualSink@onvifmp@@@std@@@2@V?$shared_ptr@VIFrameProcessor@onvifmp@@@2@PAVVirtualSink@onvifmp@@@std@@UBEABVtype_info@@XZ 100057d5 f i odm-player:Live555.obj
 0001:000047db       ??_E?$_Func_impl@U?$_Callable_obj@V<lambda_10aef3f9c20489329aef1d0346f46932>@@$0A@@std@@V?$allocator@V?$_Func_class@V?$shared_ptr@VIVideoRenderer@onvifmp@@@std@@PAVVideoDecoder@onvifmp@@@std@@@2@V?$shared_ptr@VIVideoRenderer@onvifmp@@@2@PAVVideoDecoder@onvifmp@@@std@@UAEPAXI@Z 100057db f i * CIL library *:* CIL module *
 0001:000047db       ??_G?$_Func_impl@U?$_Callable_obj@V<lambda_10aef3f9c20489329aef1d0346f46932>@@$0A@@std@@V?$allocator@V?$_Func_class@V?$shared_ptr@VIVideoRenderer@onvifmp@@@std@@PAVVideoDecoder@onvifmp@@@std@@@2@V?$shared_ptr@VIVideoRenderer@onvifmp@@@2@PAVVideoDecoder@onvifmp@@@std@@UAEPAXI@Z 100057db f i odm-player:Live555.obj
 0001:000047fa       ??_E?$_Func_impl@U?$_Callable_obj@V<lambda_de1d15fe10d4d9865796d6851c4d8d4d>@@$0A@@std@@V?$allocator@V?$_Func_class@V?$shared_ptr@VIFrameProcessor@onvifmp@@@std@@PAVVirtualSink@onvifmp@@@std@@@2@V?$shared_ptr@VIFrameProcessor@onvifmp@@@2@PAVVirtualSink@onvifmp@@@std@@UAEPAXI@Z 100057fa f i * CIL library *:* CIL module *
 0001:000047fa       ??_G?$_Func_impl@U?$_Callable_obj@V<lambda_de1d15fe10d4d9865796d6851c4d8d4d>@@$0A@@std@@V?$allocator@V?$_Func_class@V?$shared_ptr@VIFrameProcessor@onvifmp@@@std@@PAVVirtualSink@onvifmp@@@std@@@2@V?$shared_ptr@VIFrameProcessor@onvifmp@@@2@PAVVirtualSink@onvifmp@@@std@@UAEPAXI@Z 100057fa f i odm-player:Live555.obj
 0001:00004819       ??_G?$_Func_impl@U?$_Callable_obj@V<lambda_02633da78dd085cd30a2d2935e5e427d>@@$0A@@std@@V?$allocator@V?$_Func_class@V?$shared_ptr@VIFrameProcessor@onvifmp@@@std@@PAVVirtualSink@onvifmp@@@std@@@2@V?$shared_ptr@VIFrameProcessor@onvifmp@@@2@PAVVirtualSink@onvifmp@@@std@@UAEPAXI@Z 10005819 f i odm-player:Live555.obj
 0001:00004819       ??_E?$_Func_impl@U?$_Callable_obj@V<lambda_02633da78dd085cd30a2d2935e5e427d>@@$0A@@std@@V?$allocator@V?$_Func_class@V?$shared_ptr@VIFrameProcessor@onvifmp@@@std@@PAVVirtualSink@onvifmp@@@std@@@2@V?$shared_ptr@VIFrameProcessor@onvifmp@@@2@PAVVirtualSink@onvifmp@@@std@@UAEPAXI@Z 10005819 f i * CIL library *:* CIL module *
 0001:00004838       ??$_ApplyX@V?$shared_ptr@VVideoDecoder@onvifmp@@@std@@PAVVirtualSink@onvifmp@@@?$_Callable_obj@V<lambda_6f17768ec1e816bdad31c3395b38e95e>@@$0A@@std@@QAE?AV?$shared_ptr@VVideoDecoder@onvifmp@@@1@$$QAPAVVirtualSink@onvifmp@@@Z 10005838 f i odm-player:Live555.obj
 0001:00004852       ??$_ApplyX@V?$shared_ptr@VIVideoRenderer@onvifmp@@@std@@PAVVideoDecoder@onvifmp@@@?$_Callable_obj@V<lambda_10aef3f9c20489329aef1d0346f46932>@@$0A@@std@@QAE?AV?$shared_ptr@VIVideoRenderer@onvifmp@@@1@$$QAPAVVideoDecoder@onvifmp@@@Z 10005852 f i odm-player:Live555.obj
 0001:0000486c       ??$_ApplyX@V?$shared_ptr@VIFrameProcessor@onvifmp@@@std@@PAVVirtualSink@onvifmp@@@?$_Callable_obj@V<lambda_de1d15fe10d4d9865796d6851c4d8d4d>@@$0A@@std@@QAE?AV?$shared_ptr@VIFrameProcessor@onvifmp@@@1@$$QAPAVVirtualSink@onvifmp@@@Z 1000586c f i odm-player:Live555.obj
 0001:0000488a       ??$_ApplyX@V?$shared_ptr@VIFrameProcessor@onvifmp@@@std@@PAVVirtualSink@onvifmp@@@?$_Callable_obj@V<lambda_02633da78dd085cd30a2d2935e5e427d>@@$0A@@std@@QAE?AV?$shared_ptr@VIFrameProcessor@onvifmp@@@1@$$QAPAVVirtualSink@onvifmp@@@Z 1000588a f i odm-player:Live555.obj
 0001:000048a8       ?createNew@MediaSession@@SAPAV1@AAVUsageEnvironment@@PBD@Z 100058a8 f   live555:MediaSession.obj
 0001:00004900       ??0MediaSession@@IAE@AAVUsageEnvironment@@@Z 10005900 f   live555:MediaSession.obj
 0001:00004975       ??_EMediaSession@@MAEPAXI@Z 10005975 f i * CIL library *:* CIL module *
 0001:00004975       ??_GMediaSession@@MAEPAXI@Z 10005975 f i live555:MediaSession.obj
 0001:00004994       ??1MediaSession@@MAE@XZ    10005994 f   live555:MediaSession.obj
 0001:00004a10       ?isSink@MediaSink@@EBE_NXZ 10005a10 f   live555:MediaSink.obj
 0001:00004a10       ?isAMRAudioSource@AMRAudioSource@@EBE_NXZ 10005a10 f   live555:AMRAudioSource.obj
 0001:00004a10       ?isRTSPClient@RTSPClient@@EBE_NXZ 10005a10 f   live555:RTSPClient.obj
 0001:00004a10       ?isSource@MediaSource@@EBE_NXZ 10005a10 f   live555:MediaSource.obj
 0001:00004a10       ?isFramedSource@FramedSource@@EBE_NXZ 10005a10 f   live555:FramedSource.obj
 0001:00004a10       ?isMediaSession@MediaSession@@MBE_NXZ 10005a10 f   live555:MediaSession.obj
 0001:00004a10       ?isRTCPInstance@RTCPInstance@@EBE_NXZ 10005a10 f   live555:RTCP.obj
 0001:00004a10       ?isRTPSource@RTPSource@@EBE_NXZ 10005a10 f   live555:RTPSource.obj
 0001:00004a13       ?createNewMediaSubsession@MediaSession@@MAEPAVMediaSubsession@@XZ 10005a13 f   live555:MediaSession.obj
 0001:00004a34       ?initializeWithSDP@MediaSession@@IAE_NPBD@Z 10005a34 f   live555:MediaSession.obj
 0001:00004f76       ?parseSDPLine@MediaSession@@IAE_NPBDAAPBD@Z 10005f76 f   live555:MediaSession.obj
 0001:0000503b       ?parseSDPAttribute_type@MediaSession@@IAE_NPBD@Z 1000603b f   live555:MediaSession.obj
 0001:0000508b       ?parseSDPAttribute_control@MediaSession@@IAE_NPBD@Z 1000608b f   live555:MediaSession.obj
 0001:0000515a       ?parseSDPAttribute_range@MediaSession@@IAE_NPBD@Z 1000615a f   live555:MediaSession.obj
 0001:00005244       ?lookupPayloadFormat@MediaSession@@KAPADEAAI0@Z 10006244 f   live555:MediaSession.obj
 0001:000053d0       ?guessRTPTimestampFrequency@MediaSession@@KAIPBD0@Z 100063d0 f   live555:MediaSession.obj
 0001:0000546c       ??_EMediaSubsessionIterator@@UAEPAXI@Z 1000646c f i * CIL library *:* CIL module *
 0001:0000546c       ??_GMediaSubsessionIterator@@UAEPAXI@Z 1000646c f i live555:MediaSession.obj
 0001:0000548c       ??1MediaSubsessionIterator@@UAE@XZ 1000648c f   live555:MediaSession.obj
 0001:00005493       ??0MediaSubsession@@IAE@AAVMediaSession@@@Z 10006493 f   live555:MediaSession.obj
 0001:000055c4       ??_EMediaSubsession@@MAEPAXI@Z 100065c4 f i * CIL library *:* CIL module *
 0001:000055c4       ??_GMediaSubsession@@MAEPAXI@Z 100065c4 f i live555:MediaSession.obj
 0001:000055e3       ??1MediaSubsession@@MAE@XZ 100065e3 f   live555:MediaSession.obj
 0001:0000568b       ?initiate@MediaSubsession@@QAE_NH@Z 1000668b f   live555:MediaSession.obj
 0001:00005c01       ?deInitiate@MediaSubsession@@QAEXXZ 10006c01 f   live555:MediaSession.obj
 0001:00005c5e       ?connectionEndpointAddress@MediaSubsession@@QBEIXZ 10006c5e f   live555:MediaSession.obj
 0001:00005cc3       ?setDestinations@MediaSubsession@@QAEXI@Z 10006cc3 f   live555:MediaSession.obj
 0001:00005d41       ?parseSDPAttribute_rtpmap@MediaSubsession@@IAE_NPBD@Z 10006d41 f   live555:MediaSession.obj
 0001:00005e4e       ?parseSDPAttribute_fmtp@MediaSubsession@@IAE_NPBD@Z 10006e4e f   live555:MediaSession.obj
 0001:000063f7       ?parseSDPAttribute_framerate@MediaSubsession@@IAE_NPBD@Z 100073f7 f   live555:MediaSession.obj
 0001:0000646f       ?createSourceObjects@MediaSubsession@@MAE_NH@Z 1000746f f   live555:MediaSession.obj
 0001:00006fa0       ??0FramedSource@@IAE@AAVUsageEnvironment@@@Z 10007fa0 f   live555:FramedSource.obj
 0001:00006fd2       ??_GMediaSource@@MAEPAXI@Z 10007fd2 f i live555:MediaSource.obj
 0001:00006fd2       ??_EFramedSource@@MAEPAXI@Z 10007fd2 f i * CIL library *:* CIL module *
 0001:00006fd2       ??_EMediaSource@@MAEPAXI@Z 10007fd2 f i * CIL library *:* CIL module *
 0001:00006fd2       ??_GFramedSource@@MAEPAXI@Z 10007fd2 f i live555:FramedSource.obj
 0001:00006ff7       ??1AMRAudioSource@@MAE@XZ  10007ff7 f   live555:AMRAudioSource.obj
 0001:00006ff7       ??1FramedSource@@MAE@XZ    10007ff7 f   live555:FramedSource.obj
 0001:00007002       ?getNextFrame@FramedSource@@QAEXPAEIP6AXPAXIIUtimeval@@I@Z1P6AX1@Z1@Z 10008002 f   live555:FramedSource.obj
 0001:00007073       ?afterGetting@FramedSource@@SAXPAV1@@Z 10008073 f   live555:FramedSource.obj
 0001:0000709d       ?handleClosure@FramedSource@@SAXPAX@Z 1000809d f   live555:FramedSource.obj
 0001:000070b6       ?doStopGettingFrames@FramedSource@@MAEXXZ 100080b6 f   live555:FramedSource.obj
 0001:000070ca       ?maxFrameSize@FramedSource@@UBEIXZ 100080ca f   live555:FramedSource.obj
 0001:000070cd       ??0BasicUsageEnvironment@@IAE@AAVTaskScheduler@@@Z 100080cd f   live555:BasicUsageEnvironment.obj
 0001:00007135       ??_GBasicUsageEnvironment@@MAEPAXI@Z 10008135 f i live555:BasicUsageEnvironment.obj
 0001:00007135       ??_GUsageEnvironment@@MAEPAXI@Z 10008135 f i live555:UsageEnvironment.obj
 0001:00007135       ??_EBasicUsageEnvironment@@MAEPAXI@Z 10008135 f i * CIL library *:* CIL module *
 0001:00007135       ??_EUsageEnvironment@@MAEPAXI@Z 10008135 f i * CIL library *:* CIL module *
 0001:00007155       ?getErrno@BasicUsageEnvironment@@UBEHXZ 10008155 f   live555:BasicUsageEnvironment.obj
 0001:0000715b       ??6BasicUsageEnvironment@@UAEAAVUsageEnvironment@@PBD@Z 1000815b f   live555:BasicUsageEnvironment.obj
 0001:0000718e       ??6BasicUsageEnvironment@@UAEAAVUsageEnvironment@@H@Z 1000818e f   live555:BasicUsageEnvironment.obj
 0001:000071b6       ??6BasicUsageEnvironment@@UAEAAVUsageEnvironment@@I@Z 100081b6 f   live555:BasicUsageEnvironment.obj
 0001:000071de       ??6BasicUsageEnvironment@@UAEAAVUsageEnvironment@@N@Z 100081de f   live555:BasicUsageEnvironment.obj
 0001:0000720f       ??6BasicUsageEnvironment@@UAEAAVUsageEnvironment@@PAX@Z 1000820f f   live555:BasicUsageEnvironment.obj
 0001:00007237       ??_GMediaSink@@MAEPAXI@Z   10008237 f i live555:MediaSink.obj
 0001:00007237       ??_EMediaSink@@MAEPAXI@Z   10008237 f i * CIL library *:* CIL module *
 0001:00007256       ??1MediaSink@@MAE@XZ       10008256 f   live555:MediaSink.obj
 0001:00007287       ?sourceIsCompatibleWithUs@MediaSink@@MAE_NAAVMediaSource@@@Z 10008287 f   live555:MediaSink.obj
 0001:00007296       ?startPlaying@MediaSink@@QAE_NAAVMediaSource@@P6AXPAX@Z1@Z 10008296 f   live555:MediaSink.obj
 0001:000072ea       ?stopPlaying@MediaSink@@UAEXXZ 100082ea f   live555:MediaSink.obj
 0001:00007316       ?onSourceClosure@MediaSink@@KAXPAX@Z 10008316 f   live555:MediaSink.obj
 0001:0000732f       ?isMPEG1or2VideoStreamFramer@MediaSource@@UBE_NXZ 1000832f f   live555:MediaSource.obj
 0001:0000732f       ?isAMRAudioSource@MediaSource@@UBE_NXZ 1000832f f   live555:MediaSource.obj
 0001:0000732f       ?isMPEG4VideoStreamFramer@MediaSource@@UBE_NXZ 1000832f f   live555:MediaSource.obj
 0001:0000732f       ?isMediaSession@Medium@@UBE_NXZ 1000832f f   live555:Media.obj
 0001:0000732f       ?isServerMediaSession@Medium@@UBE_NXZ 1000832f f   live555:Media.obj
 0001:0000732f       ?isFramedSource@MediaSource@@UBE_NXZ 1000832f f   live555:MediaSource.obj
 0001:0000732f       ?isRTSPClient@Medium@@UBE_NXZ 1000832f f   live555:Media.obj
 0001:0000732f       ?isRTPSource@MediaSource@@UBE_NXZ 1000832f f   live555:MediaSource.obj
 0001:0000732f       ?isDarwinInjector@Medium@@UBE_NXZ 1000832f f   live555:Media.obj
 0001:0000732f       ?isJPEGVideoSource@MediaSource@@UBE_NXZ 1000832f f   live555:MediaSource.obj
 0001:0000732f       ?isSource@Medium@@UBE_NXZ  1000832f f   live555:Media.obj
 0001:0000732f       ?isSink@Medium@@UBE_NXZ    1000832f f   live555:Media.obj
 0001:0000732f       ?isH264VideoStreamFramer@MediaSource@@UBE_NXZ 1000832f f   live555:MediaSource.obj
 0001:0000732f       ?isRTSPServer@Medium@@UBE_NXZ 1000832f f   live555:Media.obj
 0001:0000732f       ?isRTCPInstance@Medium@@UBE_NXZ 1000832f f   live555:Media.obj
 0001:0000732f       ?isDVVideoStreamFramer@MediaSource@@UBE_NXZ 1000832f f   live555:MediaSource.obj
 0001:0000732f       ?isRTPSink@MediaSink@@UBE_NXZ 1000832f f   live555:MediaSink.obj
 0001:00007332       ??0OutPacketBuffer@@QAE@II@Z 10008332 f   live555:MediaSink.obj
 0001:00007388       ?enqueue@OutPacketBuffer@@QAEXPBEI@Z 10008388 f   live555:MediaSink.obj
 0001:000073c3       ?enqueueWord@OutPacketBuffer@@QAEXI@Z 100083c3 f   live555:MediaSink.obj
 0001:000073e7       ??0BasicTaskScheduler@@IAE@I@Z 100083e7 f   live555:BasicTaskScheduler.obj
 0001:0000743b       ??_GBasicTaskScheduler@@UAEPAXI@Z 1000843b f i live555:BasicTaskScheduler.obj
 0001:0000743b       ??_EBasicTaskScheduler@@UAEPAXI@Z 1000843b f i * CIL library *:* CIL module *
 0001:00007460       ?schedulerTickTask@BasicTaskScheduler@@KAXPAX@Z 10008460 f   live555:BasicTaskScheduler.obj
 0001:00007480       ?schedulerTickTask@BasicTaskScheduler@@IAEXXZ 10008480 f   live555:BasicTaskScheduler.obj
 0001:0000749d       ?SingleStep@BasicTaskScheduler@@MAEXI@Z 1000849d f   live555:BasicTaskScheduler.obj
 0001:000079fb       ?setBackgroundHandling@BasicTaskScheduler@@MAEXHHP6AXPAXH@Z0@Z 100089fb f   live555:BasicTaskScheduler.obj
 0001:00007c30       ?moveSocketHandling@BasicTaskScheduler@@MAEXHH@Z 10008c30 f   live555:BasicTaskScheduler.obj
 0001:00007e10       ?sendDescribeCommand@RTSPClient@@QAEIP6AXPAV1@HPAD@ZPAVAuthenticator@@@Z 10008e10 f   live555:RTSPClient.obj
 0001:00007e95       ?sendOptionsCommand@RTSPClient@@QAEIP6AXPAV1@HPAD@ZPAVAuthenticator@@@Z 10008e95 f   live555:RTSPClient.obj
 0001:00007f1a       ?sendSetupCommand@RTSPClient@@QAEIAAVMediaSubsession@@P6AXPAV1@HPAD@Z_N44PAVAuthenticator@@@Z 10008f1a f   live555:RTSPClient.obj
 0001:00007fa7       ?parseRTSPURL@RTSPClient@@SA_NAAVUsageEnvironment@@PBDAAPAD2AAVNetAddress@@AAGPAPBD@Z 10008fa7 f   live555:RTSPClient.obj
 0001:00008254       ??0RTSPClient@@IAE@AAVUsageEnvironment@@PBDH1G@Z 10009254 f   live555:RTSPClient.obj
 0001:000083ab       ??_ERTSPClient@@MAEPAXI@Z  100093ab f i * CIL library *:* CIL module *
 0001:000083ab       ??_GRTSPClient@@MAEPAXI@Z  100093ab f i live555:RTSPClient.obj
 0001:000083ca       ??1RTSPClient@@MAE@XZ      100093ca f   live555:RTSPClient.obj
 0001:00008478       ?resetTCPSockets@RTSPClient@@AAEXXZ 10009478 f   live555:RTSPClient.obj
 0001:000084c9       ?setBaseURL@RTSPClient@@IAEXPBD@Z 100094c9 f   live555:RTSPClient.obj
 0001:000084e8       ?openConnection@RTSPClient@@AAEHXZ 100094e8 f   live555:RTSPClient.obj
 0001:000085f9       ?connectToServer@RTSPClient@@AAEHHG@Z 100095f9 f   live555:RTSPClient.obj
 0001:00008725       ?createAuthenticatorString@RTSPClient@@AAEPADPBD0@Z 10009725 f   live555:RTSPClient.obj
 0001:00008ac0       ?sendRequest@RTSPClient@@MAEIPAVRequestRecord@1@@Z 10009ac0 f   live555:RTSPClient.obj
 0001:000094c0       ?handleRequestError@RTSPClient@@AAEXPAVRequestRecord@1@@Z 1000a4c0 f   live555:RTSPClient.obj
 0001:00009503       ?parseResponseCode@RTSPClient@@AAE_NPBDAAIAAPBD@Z 1000a503 f   live555:RTSPClient.obj
 0001:0000957e       ?handleIncomingRequest@RTSPClient@@AAEXXZ 1000a57e f   live555:RTSPClient.obj
 0001:00009653       ?checkForHeader@RTSPClient@@CA_NPBD0IAAPBD@Z 1000a653 f   live555:RTSPClient.obj
 0001:0000967c       ?parseTransportParams@RTSPClient@@AAE_NPBDAAPADAAGAAE3@Z 1000a67c f   live555:RTSPClient.obj
 0001:00009893       ?parseScaleParam@RTSPClient@@AAE_NPBDAAM@Z 1000a893 f   live555:RTSPClient.obj
 0001:000098f6       ?parseRTPInfoParams@RTSPClient@@AAE_NAAPBDAAGAAI@Z 1000a8f6 f   live555:RTSPClient.obj
 0001:000099d3       ?handleSETUPResponse@RTSPClient@@AAE_NAAVMediaSubsession@@PBD1_N@Z 1000a9d3 f   live555:RTSPClient.obj
 0001:00009bba       ?handlePLAYResponse@RTSPClient@@AAE_NAAVMediaSession@@AAVMediaSubsession@@PBD22@Z 1000abba f   live555:RTSPClient.obj
 0001:00009d29       ?handleGET_PARAMETERResponse@RTSPClient@@AAE_NPBDAAPAD@Z 1000ad29 f   live555:RTSPClient.obj
 0001:00009dc7       ?handleAuthenticationFailure@RTSPClient@@AAE_NPBD@Z 1000adc7 f   live555:RTSPClient.obj
 0001:00009e90       ?resendCommand@RTSPClient@@AAE_NPAVRequestRecord@1@@Z 1000ae90 f   live555:RTSPClient.obj
 0001:00009ee4       ?sessionURL@RTSPClient@@ABEPBDABVMediaSession@@@Z 1000aee4 f   live555:RTSPClient.obj
 0001:00009f07       ?handleAlternativeRequestByte@RTSPClient@@CAXPAXE@Z 1000af07 f   live555:RTSPClient.obj
 0001:00009f50       ?constructSubsessionURL@RTSPClient@@AAEXABVMediaSubsession@@AAPBD11@Z 1000af50 f   live555:RTSPClient.obj
 0001:00009fd5       ?setupHTTPTunneling1@RTSPClient@@AAE_NXZ 1000afd5 f   live555:RTSPClient.obj
 0001:0000a074       ?responseHandlerForHTTP_GET@RTSPClient@@CAXPAV1@HPAD@Z 1000b074 f   live555:RTSPClient.obj
 0001:0000a08b       ?responseHandlerForHTTP_GET1@RTSPClient@@AAEXHPAD@Z 1000b08b f   live555:RTSPClient.obj
 0001:0000a17d       ?setupHTTPTunneling2@RTSPClient@@AAE_NXZ 1000b17d f   live555:RTSPClient.obj
 0001:0000a1f3       ?connectionHandler@RTSPClient@@CAXPAXH@Z 1000b1f3 f   live555:RTSPClient.obj
 0001:0000a1ff       ?connectionHandler1@RTSPClient@@AAEXXZ 1000b1ff f   live555:RTSPClient.obj
 0001:0000a339       ?incomingDataHandler@RTSPClient@@CAXPAXH@Z 1000b339 f   live555:RTSPClient.obj
 0001:0000a3b2       ?handleResponseBytes@RTSPClient@@AAEXH@Z 1000b3b2 f   live555:RTSPClient.obj
 0001:0000adb2       ??0RequestRecord@RTSPClient@@QAE@IPBDP6AXPAV1@HPAD@ZPAVMediaSession@@PAVMediaSubsession@@INNM0@Z 1000bdb2 f   live555:RTSPClient.obj
 0001:0000ae1a       ??_ERequestRecord@RTSPClient@@UAEPAXI@Z 1000be1a f i * CIL library *:* CIL module *
 0001:0000ae1a       ??_GRequestRecord@RTSPClient@@UAEPAXI@Z 1000be1a f i live555:RTSPClient.obj
 0001:0000ae39       ??1RequestRecord@RTSPClient@@UAE@XZ 1000be39 f   live555:RTSPClient.obj
 0001:0000ae6c       ??_GRequestQueue@RTSPClient@@UAEPAXI@Z 1000be6c f i live555:RTSPClient.obj
 0001:0000ae6c       ??_ERequestQueue@RTSPClient@@UAEPAXI@Z 1000be6c f i * CIL library *:* CIL module *
 0001:0000ae8b       ??0RequestQueue@RTSPClient@@QAE@AAV01@@Z 1000be8b f   live555:RTSPClient.obj
 0001:0000aebc       ??1RequestQueue@RTSPClient@@UAE@XZ 1000bebc f   live555:RTSPClient.obj
 0001:0000aed0       ?enqueue@RequestQueue@RTSPClient@@QAEXPAVRequestRecord@2@@Z 1000bed0 f   live555:RTSPClient.obj
 0001:0000aeec       ?dequeue@RequestQueue@RTSPClient@@QAEPAVRequestRecord@2@XZ 1000beec f   live555:RTSPClient.obj
 0001:0000af0f       ?findByCSeq@RequestQueue@RTSPClient@@QAEPAVRequestRecord@2@I@Z 1000bf0f f   live555:RTSPClient.obj
 0001:0000af2e       ?describeURL@RTSPClient@@QAEPADPBDPAVAuthenticator@@_NH@Z 1000bf2e f   live555:RTSPClient.obj
 0001:0000b056       ?sendOptionsCmd@RTSPClient@@QAEPADPBDPAD1PAVAuthenticator@@H@Z 1000c056 f   live555:RTSPClient.obj
 0001:0000b1f0       ?playMediaSession@RTSPClient@@QAE_NAAVMediaSession@@NNM@Z 1000c1f0 f   live555:RTSPClient.obj
 0001:0000b2a7       ?teardownMediaSession@RTSPClient@@QAE_NAAVMediaSession@@@Z 1000c2a7 f   live555:RTSPClient.obj
 0001:0000b327       ?parseRTSPURLUsernamePassword@RTSPClient@@SA_NPBDAAPAD1@Z 1000c327 f   live555:RTSPClient.obj
 0001:0000b3c6       ?responseHandlerForSyncInterface@RTSPClient@@CAXPAV1@HPAD@Z 1000c3c6 f   live555:RTSPClient.obj
 0001:0000b404       ?timeoutHandlerForSyncInterface@RTSPClient@@CAXPAX@Z 1000c404 f   live555:RTSPClient.obj
 0001:0000b416       ?timeoutHandlerForSyncInterface1@RTSPClient@@AAEXXZ 1000c416 f   live555:RTSPClient.obj
 0001:0000b46f       ?internalError@TaskScheduler@@UAEXXZ 1000c46f f   live555:UsageEnvironment.obj
 0001:0000b46f       ?internalError@UsageEnvironment@@UAEXXZ 1000c46f f   live555:UsageEnvironment.obj
 0001:0000b475       ??_ETaskScheduler@@UAEPAXI@Z 1000c475 f i * CIL library *:* CIL module *
 0001:0000b475       ??_GTaskScheduler@@UAEPAXI@Z 1000c475 f i live555:UsageEnvironment.obj
 0001:0000b495       ??1TaskScheduler@@UAE@XZ   1000c495 f   live555:UsageEnvironment.obj
 0001:0000b49c       ?rescheduleDelayedTask@TaskScheduler@@UAEXAAPAX_JP6AXPAX@Z2@Z 1000c49c f   live555:UsageEnvironment.obj
 0001:0000b4c7       ??0Medium@@IAE@AAVUsageEnvironment@@@Z 1000c4c7 f   live555:Media.obj
 0001:0000b524       ??_GMedium@@MAEPAXI@Z      1000c524 f i live555:Media.obj
 0001:0000b524       ??_EMedium@@MAEPAXI@Z      1000c524 f i * CIL library *:* CIL module *
 0001:0000b543       ??1Medium@@MAE@XZ          1000c543 f   live555:Media.obj
 0001:0000b55d       ?close@Medium@@SAXAAVUsageEnvironment@@PBD@Z 1000c55d f   live555:Media.obj
 0001:0000b5d2       ?close@Medium@@SAXPAV1@@Z  1000c5d2 f   live555:Media.obj
 0001:0000b5e2       ?getOurTables@_Tables@@SAPAV1@AAVUsageEnvironment@@_N@Z 1000c5e2 f   live555:Media.obj
 0001:0000b619       ??_E_Tables@@MAEPAXI@Z     1000c619 f i * CIL library *:* CIL module *
 0001:0000b619       ??_G_Tables@@MAEPAXI@Z     1000c619 f i live555:Media.obj
 0001:0000b639       ?ourMedia@MediaLookupTable@@SAPAV1@AAVUsageEnvironment@@@Z 1000c639 f   live555:Media.obj
 0001:0000b693       ??_GMediaLookupTable@@MAEPAXI@Z 1000c693 f i live555:Media.obj
 0001:0000b693       ??_EMediaLookupTable@@MAEPAXI@Z 1000c693 f i * CIL library *:* CIL module *
 0001:0000b6b2       ??1MediaLookupTable@@MAE@XZ 1000c6b2 f   live555:Media.obj
 0001:0000b6c6       ?createNew@H264VideoRTPSource@@SAPAV1@AAVUsageEnvironment@@PAVGroupsock@@EI@Z 1000c6c6 f   live555:H264VideoRTPSource.obj
 0001:0000b72b       ??_EH264VideoRTPSource@@MAEPAXI@Z 1000c72b f i * CIL library *:* CIL module *
 0001:0000b72b       ??_GH264VideoRTPSource@@MAEPAXI@Z 1000c72b f i live555:H264VideoRTPSource.obj
 0001:0000b750       ??_GVorbisBufferedPacketFactory@@UAEPAXI@Z 1000c750 f i live555:VorbisAudioRTPSource.obj
 0001:0000b750       ??_GADUBufferedPacketFactory@@UAEPAXI@Z 1000c750 f i live555:MP3ADURTPSource.obj
 0001:0000b750       ??_EVorbisBufferedPacketFactory@@UAEPAXI@Z 1000c750 f i * CIL library *:* CIL module *
 0001:0000b750       ??_ELATMBufferedPacketFactory@@UAEPAXI@Z 1000c750 f i * CIL library *:* CIL module *
 0001:0000b750       ??_EBufferedPacketFactory@@UAEPAXI@Z 1000c750 f i * CIL library *:* CIL module *
 0001:0000b750       ??_GBufferedPacketFactory@@UAEPAXI@Z 1000c750 f i live555:MultiFramedRTPSource.obj
 0001:0000b750       ??_EADUBufferedPacketFactory@@UAEPAXI@Z 1000c750 f i * CIL library *:* CIL module *
 0001:0000b750       ??_GH264BufferedPacketFactory@@UAEPAXI@Z 1000c750 f i live555:H264VideoRTPSource.obj
 0001:0000b750       ??_GQTGenericBufferedPacketFactory@@UAEPAXI@Z 1000c750 f i live555:QuickTimeGenericRTPSource.obj
 0001:0000b750       ??_EH264BufferedPacketFactory@@UAEPAXI@Z 1000c750 f i * CIL library *:* CIL module *
 0001:0000b750       ??_EQCELPBufferedPacketFactory@@UAEPAXI@Z 1000c750 f i * CIL library *:* CIL module *
 0001:0000b750       ??_GLATMBufferedPacketFactory@@UAEPAXI@Z 1000c750 f i live555:MPEG4LATMAudioRTPSource.obj
 0001:0000b750       ??_EJPEGBufferedPacketFactory@@UAEPAXI@Z 1000c750 f i * CIL library *:* CIL module *
 0001:0000b750       ??_GAMRBufferedPacketFactory@@UAEPAXI@Z 1000c750 f i live555:AMRAudioRTPSource.obj
 0001:0000b750       ??_GJPEGBufferedPacketFactory@@UAEPAXI@Z 1000c750 f i live555:JPEGVideoRTPSource.obj
 0001:0000b750       ??_EQTGenericBufferedPacketFactory@@UAEPAXI@Z 1000c750 f i * CIL library *:* CIL module *
 0001:0000b750       ??_EMPEG4GenericBufferedPacketFactory@@UAEPAXI@Z 1000c750 f i * CIL library *:* CIL module *
 0001:0000b750       ??_GMPEG4GenericBufferedPacketFactory@@UAEPAXI@Z 1000c750 f i live555:MPEG4GenericRTPSource.obj
 0001:0000b750       ??_GQCELPBufferedPacketFactory@@UAEPAXI@Z 1000c750 f i live555:QCELPAudioRTPSource.obj
 0001:0000b750       ??_EAMRBufferedPacketFactory@@UAEPAXI@Z 1000c750 f i * CIL library *:* CIL module *
 0001:0000b770       ?processSpecialHeader@H264VideoRTPSource@@MAE_NPAVBufferedPacket@@AAI@Z 1000c770 f   live555:H264VideoRTPSource.obj
 0001:0000b80b       ?MIMEtype@H264VideoRTPSource@@MBEPBDXZ 1000c80b f   live555:H264VideoRTPSource.obj
 0001:0000b811       ?parseSPropParameterSets@@YAPAVSPropRecord@@PBDAAI@Z 1000c811 f   live555:H264VideoRTPSource.obj
 0001:0000b8d8       ??_EH264BufferedPacket@@UAEPAXI@Z 1000c8d8 f i * CIL library *:* CIL module *
 0001:0000b8d8       ??_GH264BufferedPacket@@UAEPAXI@Z 1000c8d8 f i live555:H264VideoRTPSource.obj
 0001:0000b8fd       ?nextEnclosedFrameSize@H264BufferedPacket@@EAEIAAPAEI@Z 1000c8fd f   live555:H264VideoRTPSource.obj
 0001:0000b98d       ?createNewPacket@H264BufferedPacketFactory@@EAEPAVBufferedPacket@@PAVMultiFramedRTPSource@@@Z 1000c98d f   live555:H264VideoRTPSource.obj
 0001:0000b9d0       ?createNew@H263plusVideoRTPSource@@SAPAV1@AAVUsageEnvironment@@PAVGroupsock@@EI@Z 1000c9d0 f   live555:H263plusVideoRTPSource.obj
 0001:0000ba2a       ??_GH263plusVideoRTPSource@@MAEPAXI@Z 1000ca2a f i live555:H263plusVideoRTPSource.obj
 0001:0000ba2a       ??_EH263plusVideoRTPSource@@MAEPAXI@Z 1000ca2a f i * CIL library *:* CIL module *
 0001:0000ba4f       ?processSpecialHeader@H263plusVideoRTPSource@@EAE_NPAVBufferedPacket@@AAI@Z 1000ca4f f   live555:H263plusVideoRTPSource.obj
 0001:0000bb73       ?MIMEtype@H263plusVideoRTPSource@@EBEPBDXZ 1000cb73 f   live555:H263plusVideoRTPSource.obj
 0001:0000bb79       ?hasBeenSynchronizedUsingRTCP@RTPSource@@UAE_NXZ 1000cb79 f   live555:RTPSource.obj
 0001:0000bb80       ??0RTPSource@@IAE@AAVUsageEnvironment@@PAVGroupsock@@EI@Z 1000cb80 f   live555:RTPSource.obj
 0001:0000bc29       ??_ERTPSource@@MAEPAXI@Z   1000cc29 f i * CIL library *:* CIL module *
 0001:0000bc29       ??_GRTPSource@@MAEPAXI@Z   1000cc29 f i live555:RTPSource.obj
 0001:0000bc48       ??1RTPSource@@MAE@XZ       1000cc48 f   live555:RTPSource.obj
 0001:0000bc97       ?getAttributes@RTPSource@@EBEXXZ 1000cc97 f   live555:RTPSource.obj
 0001:0000bca5       ??_GRTPReceptionStatsDB@@MAEPAXI@Z 1000cca5 f i live555:RTPSource.obj
 0001:0000bca5       ??_ERTPReceptionStatsDB@@MAEPAXI@Z 1000cca5 f i * CIL library *:* CIL module *
 0001:0000bcc4       ?reset@RTPReceptionStatsDB@@QAEXXZ 1000ccc4 f   live555:RTPSource.obj
 0001:0000bd25       ??1RTPReceptionStatsDB@@MAE@XZ 1000cd25 f   live555:RTPSource.obj
 0001:0000bd55       ?noteIncomingPacket@RTPReceptionStatsDB@@QAEXIGII_NAAUtimeval@@AA_NI@Z 1000cd55 f   live555:RTPSource.obj
 0001:0000bde5       ?noteIncomingSR@RTPReceptionStatsDB@@QAEXIIII@Z 1000cde5 f   live555:RTPSource.obj
 0001:0000be46       ??_GIterator@RTPReceptionStatsDB@@UAEPAXI@Z 1000ce46 f i live555:RTPSource.obj
 0001:0000be46       ??_EIterator@RTPReceptionStatsDB@@UAEPAXI@Z 1000ce46 f i * CIL library *:* CIL module *
 0001:0000be65       ??1Iterator@RTPReceptionStatsDB@@UAE@XZ 1000ce65 f   live555:RTPSource.obj
 0001:0000be79       ??_ERTPReceptionStats@@MAEPAXI@Z 1000ce79 f i * CIL library *:* CIL module *
 0001:0000be79       ??_GRTPReceptionStats@@MAEPAXI@Z 1000ce79 f i live555:RTPSource.obj
 0001:0000be99       ?init@RTPReceptionStats@@AAEXI@Z 1000ce99 f   live555:RTPSource.obj
 0001:0000bef7       ?noteIncomingPacket@RTPReceptionStats@@AAEXGII_NAAUtimeval@@AA_NI@Z 1000cef7 f   live555:RTPSource.obj
 0001:0000c1b9       ?noteIncomingSR@RTPReceptionStats@@AAEXIII@Z 1000d1b9 f   live555:RTPSource.obj
 0001:0000c223       ?seqNumLT@@YA_NGG@Z        1000d223 f   live555:RTPSource.obj
 0001:0000c236       ?createNew@VorbisAudioRTPSource@@SAPAV1@AAVUsageEnvironment@@PAVGroupsock@@EI@Z 1000d236 f   live555:VorbisAudioRTPSource.obj
 0001:0000c2a2       ??_EVorbisAudioRTPSource@@MAEPAXI@Z 1000d2a2 f i * CIL library *:* CIL module *
 0001:0000c2a2       ??_GVorbisAudioRTPSource@@MAEPAXI@Z 1000d2a2 f i live555:VorbisAudioRTPSource.obj
 0001:0000c2c7       ?processSpecialHeader@VorbisAudioRTPSource@@MAE_NPAVBufferedPacket@@AAI@Z 1000d2c7 f   live555:VorbisAudioRTPSource.obj
 0001:0000c342       ?MIMEtype@VorbisAudioRTPSource@@MBEPBDXZ 1000d342 f   live555:VorbisAudioRTPSource.obj
 0001:0000c348       ??_GVorbisBufferedPacket@@UAEPAXI@Z 1000d348 f i live555:VorbisAudioRTPSource.obj
 0001:0000c348       ??_EVorbisBufferedPacket@@UAEPAXI@Z 1000d348 f i * CIL library *:* CIL module *
 0001:0000c36d       ?nextEnclosedFrameSize@VorbisBufferedPacket@@EAEIAAPAEI@Z 1000d36d f   live555:VorbisAudioRTPSource.obj
 0001:0000c3a2       ?createNewPacket@VorbisBufferedPacketFactory@@EAEPAVBufferedPacket@@PAVMultiFramedRTPSource@@@Z 1000d3a2 f   live555:VorbisAudioRTPSource.obj
 0001:0000c3df       ??_ELocale@@UAEPAXI@Z      1000d3df f i * CIL library *:* CIL module *
 0001:0000c3df       ??_GLocale@@UAEPAXI@Z      1000d3df f i live555:Locale.obj
 0001:0000c3fe       ??1Locale@@UAE@XZ          1000d3fe f   live555:Locale.obj
 0001:0000c426       ?createNew@SimpleRTPSource@@SAPAV1@AAVUsageEnvironment@@PAVGroupsock@@EIPBDI_N@Z 1000d426 f   live555:SimpleRTPSource.obj
 0001:0000c46c       ??0SimpleRTPSource@@IAE@AAVUsageEnvironment@@PAVGroupsock@@EIPBDI_N@Z 1000d46c f   live555:SimpleRTPSource.obj
 0001:0000c4de       ??_ESimpleRTPSource@@MAEPAXI@Z 1000d4de f i * CIL library *:* CIL module *
 0001:0000c4de       ??_GSimpleRTPSource@@MAEPAXI@Z 1000d4de f i live555:SimpleRTPSource.obj
 0001:0000c4fd       ??1SimpleRTPSource@@MAE@XZ 1000d4fd f   live555:SimpleRTPSource.obj
 0001:0000c51a       ?processSpecialHeader@SimpleRTPSource@@EAE_NPAVBufferedPacket@@AAI@Z 1000d51a f   live555:SimpleRTPSource.obj
 0001:0000c54d       ?MIMEtype@SimpleRTPSource@@EBEPBDXZ 1000d54d f   live555:SimpleRTPSource.obj
 0001:0000c55e       ?createNew@QCELPAudioRTPSource@@SAPAVFramedSource@@AAVUsageEnvironment@@PAVGroupsock@@AAPAVRTPSource@@EI@Z 1000d55e f   live555:QCELPAudioRTPSource.obj
 0001:0000c5ef       ??0RawQCELPRTPSource@@AAE@AAVUsageEnvironment@@PAVGroupsock@@EI@Z 1000d5ef f   live555:QCELPAudioRTPSource.obj
 0001:0000c644       ??_ERawQCELPRTPSource@@EAEPAXI@Z 1000d644 f i * CIL library *:* CIL module *
 0001:0000c644       ??_GRawQCELPRTPSource@@EAEPAXI@Z 1000d644 f i live555:QCELPAudioRTPSource.obj
 0001:0000c669       ?processSpecialHeader@RawQCELPRTPSource@@EAE_NPAVBufferedPacket@@AAI@Z 1000d669 f   live555:QCELPAudioRTPSource.obj
 0001:0000c6d8       ?MIMEtype@RawQCELPRTPSource@@EBEPBDXZ 1000d6d8 f   live555:QCELPAudioRTPSource.obj
 0001:0000c6de       ?hasBeenSynchronizedUsingRTCP@RawQCELPRTPSource@@EAE_NXZ 1000d6de f   live555:QCELPAudioRTPSource.obj
 0001:0000c6ff       ??_GQCELPBufferedPacket@@UAEPAXI@Z 1000d6ff f i live555:QCELPAudioRTPSource.obj
 0001:0000c6ff       ??_EQCELPBufferedPacket@@UAEPAXI@Z 1000d6ff f i * CIL library *:* CIL module *
 0001:0000c724       ?nextEnclosedFrameSize@QCELPBufferedPacket@@EAEIAAPAEI@Z 1000d724 f   live555:QCELPAudioRTPSource.obj
 0001:0000c773       ?createNewPacket@QCELPBufferedPacketFactory@@EAEPAVBufferedPacket@@PAVMultiFramedRTPSource@@@Z 1000d773 f   live555:QCELPAudioRTPSource.obj
 0001:0000c7b6       ??0QCELPDeinterleaver@@AAE@AAVUsageEnvironment@@PAVRawQCELPRTPSource@@@Z 1000d7b6 f   live555:QCELPAudioRTPSource.obj
 0001:0000c80d       ??_GQCELPDeinterleaver@@EAEPAXI@Z 1000d80d f i live555:QCELPAudioRTPSource.obj
 0001:0000c80d       ??_EQCELPDeinterleaver@@EAEPAXI@Z 1000d80d f i * CIL library *:* CIL module *
 0001:0000c82c       ??1QCELPDeinterleaver@@EAE@XZ 1000d82c f   live555:QCELPAudioRTPSource.obj
 0001:0000c865       ?doGetNextFrame@QCELPDeinterleaver@@EAEXXZ 1000d865 f   live555:QCELPAudioRTPSource.obj
 0001:0000c8c5       ?doStopGettingFrames@QCELPDeinterleaver@@EAEXXZ 1000d8c5 f   live555:QCELPAudioRTPSource.obj
 0001:0000c8d5       ?afterGettingFrame@QCELPDeinterleaver@@CAXPAXIIUtimeval@@I@Z 1000d8d5 f   live555:QCELPAudioRTPSource.obj
 0001:0000c922       ??0QCELPDeinterleavingBuffer@@QAE@XZ 1000d922 f   live555:QCELPAudioRTPSource.obj
 0001:0000c978       ??_EQCELPDeinterleavingBuffer@@UAEPAXI@Z 1000d978 f i * CIL library *:* CIL module *
 0001:0000c978       ??_GQCELPDeinterleavingBuffer@@UAEPAXI@Z 1000d978 f i live555:QCELPAudioRTPSource.obj
 0001:0000c997       ??1QCELPDeinterleavingBuffer@@UAE@XZ 1000d997 f   live555:QCELPAudioRTPSource.obj
 0001:0000c9c1       ?deliverIncomingFrame@QCELPDeinterleavingBuffer@@QAEXIEEEGUtimeval@@@Z 1000d9c1 f   live555:QCELPAudioRTPSource.obj
 0001:0000cb09       ?retrieveFrame@QCELPDeinterleavingBuffer@@QAE_NPAEIAAI1AAUtimeval@@@Z 1000db09 f   live555:QCELPAudioRTPSource.obj
 0001:0000cbde       ??0FrameDescriptor@QCELPDeinterleavingBuffer@@QAE@XZ 1000dbde f   live555:QCELPAudioRTPSource.obj
 0001:0000cbef       ??_EFrameDescriptor@QCELPDeinterleavingBuffer@@UAEPAXI@Z 1000dbef f i * CIL library *:* CIL module *
 0001:0000cbef       ??_GFrameDescriptor@QCELPDeinterleavingBuffer@@UAEPAXI@Z 1000dbef f i live555:QCELPAudioRTPSource.obj
 0001:0000cc0e       ??1FrameDescriptor@QCELPDeinterleavingBuffer@@UAE@XZ 1000dc0e f   live555:QCELPAudioRTPSource.obj
 0001:0000cc1e       ??_EH261VideoRTPSource@@MAEPAXI@Z 1000dc1e f i * CIL library *:* CIL module *
 0001:0000cc1e       ??_GH261VideoRTPSource@@MAEPAXI@Z 1000dc1e f i live555:H261VideoRTPSource.obj
 0001:0000cc43       ?processSpecialHeader@H261VideoRTPSource@@EAE_NPAVBufferedPacket@@AAI@Z 1000dc43 f   live555:H261VideoRTPSource.obj
 0001:0000cc98       ?MIMEtype@H261VideoRTPSource@@EBEPBDXZ 1000dc98 f   live555:H261VideoRTPSource.obj
 0001:0000cc9e       ?createNew@MPEG4LATMAudioRTPSource@@SAPAV1@AAVUsageEnvironment@@PAVGroupsock@@EI@Z 1000dc9e f   live555:MPEG4LATMAudioRTPSource.obj
 0001:0000cd0a       ??_EMPEG4LATMAudioRTPSource@@MAEPAXI@Z 1000dd0a f i * CIL library *:* CIL module *
 0001:0000cd0a       ??_GMPEG4LATMAudioRTPSource@@MAEPAXI@Z 1000dd0a f i live555:MPEG4LATMAudioRTPSource.obj
 0001:0000cd2f       ?processSpecialHeader@MPEG4LATMAudioRTPSource@@EAE_NPAVBufferedPacket@@AAI@Z 1000dd2f f   live555:MPEG4LATMAudioRTPSource.obj
 0001:0000cd56       ?MIMEtype@MPEG4LATMAudioRTPSource@@EBEPBDXZ 1000dd56 f   live555:MPEG4LATMAudioRTPSource.obj
 0001:0000cd5c       ??_GLATMBufferedPacket@@UAEPAXI@Z 1000dd5c f i live555:MPEG4LATMAudioRTPSource.obj
 0001:0000cd5c       ??_ELATMBufferedPacket@@UAEPAXI@Z 1000dd5c f i * CIL library *:* CIL module *
 0001:0000cd81       ?nextEnclosedFrameSize@LATMBufferedPacket@@EAEIAAPAEI@Z 1000dd81 f   live555:MPEG4LATMAudioRTPSource.obj
 0001:0000cdcf       ?createNewPacket@LATMBufferedPacketFactory@@EAEPAVBufferedPacket@@PAVMultiFramedRTPSource@@@Z 1000ddcf f   live555:MPEG4LATMAudioRTPSource.obj
 0001:0000ce18       ?isEmpty@SegmentQueue@@QAE_NXZ 1000de18 f i live555:MP3ADU.obj
 0001:0000ce34       ??0MP3FromADUSource@@IAE@AAVUsageEnvironment@@PAVFramedSource@@_N@Z 1000de34 f   live555:MP3ADU.obj
 0001:0000cea3       ??_GMP3FromADUSource@@MAEPAXI@Z 1000dea3 f i live555:MP3ADU.obj
 0001:0000cea3       ??_EMP3FromADUSource@@MAEPAXI@Z 1000dea3 f i * CIL library *:* CIL module *
 0001:0000cec2       ??1MP3FromADUSource@@MAE@XZ 1000dec2 f   live555:MP3ADU.obj
 0001:0000cedc       ?MIMEtype@MP3FromADUSource@@EBEPBDXZ 1000dedc f   live555:MP3ADU.obj
 0001:0000cee2       ?createNew@MP3FromADUSource@@SAPAV1@AAVUsageEnvironment@@PAVFramedSource@@_N@Z 1000dee2 f   live555:MP3ADU.obj
 0001:0000cf48       ?doGetNextFrame@MP3FromADUSource@@EAEXXZ 1000df48 f   live555:MP3ADU.obj
 0001:0000cf87       ?needToGetAnADU@MP3FromADUSource@@AAE_NXZ 1000df87 f   live555:MP3ADU.obj
 0001:0000d022       ?insertDummyADUsIfNecessary@MP3FromADUSource@@AAEXXZ 1000e022 f   live555:MP3ADU.obj
 0001:0000d0ca       ?generateFrameFromHeadADU@MP3FromADUSource@@AAE_NXZ 1000e0ca f   live555:MP3ADU.obj
 0001:0000d250       ?enqueueNewSegment@SegmentQueue@@QAEXPAVFramedSource@@0@Z 1000e250 f   live555:MP3ADU.obj
 0001:0000d2b4       ?sqAfterGettingSegment@SegmentQueue@@CAXPAXIIUtimeval@@I@Z 1000e2b4 f   live555:MP3ADU.obj
 0001:0000d2fa       ?sqAfterGettingCommon@SegmentQueue@@AAE_NAAVSegment@@I@Z 1000e2fa f   live555:MP3ADU.obj
 0001:0000d3ee       ?dequeue@SegmentQueue@@QAE_NXZ 1000e3ee f   live555:MP3ADU.obj
 0001:0000d44e       ?insertDummyBeforeTail@SegmentQueue@@QAE_NI@Z 1000e44e f   live555:MP3ADU.obj
 0001:0000d50f       ??0BasicUDPSource@@AAE@AAVUsageEnvironment@@PAVGroupsock@@@Z 1000e50f f   live555:BasicUDPSource.obj
 0001:0000d568       ??_EBasicUDPSource@@UAEPAXI@Z 1000e568 f i * CIL library *:* CIL module *
 0001:0000d568       ??_GBasicUDPSource@@UAEPAXI@Z 1000e568 f i live555:BasicUDPSource.obj
 0001:0000d587       ??1BasicUDPSource@@UAE@XZ  1000e587 f   live555:BasicUDPSource.obj
 0001:0000d5cf       ?doGetNextFrame@BasicUDPSource@@EAEXXZ 1000e5cf f   live555:BasicUDPSource.obj
 0001:0000d5f7       ?doStopGettingFrames@BasicUDPSource@@EAEXXZ 1000e5f7 f   live555:BasicUDPSource.obj
 0001:0000d617       ?incomingPacketHandler@BasicUDPSource@@CAXPAV1@H@Z 1000e617 f   live555:BasicUDPSource.obj
 0001:0000d661       ??_GMPEG1or2VideoRTPSource@@MAEPAXI@Z 1000e661 f i live555:MPEG1or2VideoRTPSource.obj
 0001:0000d661       ??_EMPEG1or2VideoRTPSource@@MAEPAXI@Z 1000e661 f i * CIL library *:* CIL module *
 0001:0000d686       ?processSpecialHeader@MPEG1or2VideoRTPSource@@EAE_NPAVBufferedPacket@@AAI@Z 1000e686 f   live555:MPEG1or2VideoRTPSource.obj
 0001:0000d6f4       ?packetIsUsableInJitterCalculation@MPEG1or2VideoRTPSource@@EAE_NPAEI@Z 1000e6f4 f   live555:MPEG1or2VideoRTPSource.obj
 0001:0000d71d       ?MIMEtype@MPEG1or2VideoRTPSource@@EBEPBDXZ 1000e71d f   live555:MPEG1or2VideoRTPSource.obj
 0001:0000d723       ??_GAC3AudioRTPSource@@MAEPAXI@Z 1000e723 f i live555:AC3AudioRTPSource.obj
 0001:0000d723       ??_EAC3AudioRTPSource@@MAEPAXI@Z 1000e723 f i * CIL library *:* CIL module *
 0001:0000d748       ?processSpecialHeader@AC3AudioRTPSource@@EAE_NPAVBufferedPacket@@AAI@Z 1000e748 f   live555:AC3AudioRTPSource.obj
 0001:0000d79e       ?MIMEtype@AC3AudioRTPSource@@EBEPBDXZ 1000e79e f   live555:AC3AudioRTPSource.obj
 0001:0000d7a4       ??_EMP3ADUinterleaverBase@@MAEPAXI@Z 1000e7a4 f i * CIL library *:* CIL module *
 0001:0000d7a4       ??_GMP3ADUinterleaverBase@@MAEPAXI@Z 1000e7a4 f i live555:MP3ADUinterleaving.obj
 0001:0000d7c9       ??1MP3ADUinterleaverBase@@MAE@XZ 1000e7c9 f   live555:MP3ADUinterleaving.obj
 0001:0000d7d4       ?afterGettingFrame@MP3ADUinterleaverBase@@KAXPAXIIUtimeval@@I@Z 1000e7d4 f   live555:MP3ADUinterleaving.obj
 0001:0000d7f7       ??0MP3ADUdeinterleaver@@IAE@AAVUsageEnvironment@@PAVFramedSource@@@Z 1000e7f7 f   live555:MP3ADUinterleaving.obj
 0001:0000d850       ??_EMP3ADUdeinterleaver@@MAEPAXI@Z 1000e850 f i * CIL library *:* CIL module *
 0001:0000d850       ??_GMP3ADUdeinterleaver@@MAEPAXI@Z 1000e850 f i live555:MP3ADUinterleaving.obj
 0001:0000d86f       ??1MP3ADUdeinterleaver@@MAE@XZ 1000e86f f   live555:MP3ADUinterleaving.obj
 0001:0000d8ae       ?doGetNextFrame@MP3ADUdeinterleaver@@EAEXXZ 1000e8ae f   live555:MP3ADUinterleaving.obj
 0001:0000d910       ?afterGettingFrame@MP3ADUdeinterleaver@@EAEXIUtimeval@@I@Z 1000e910 f   live555:MP3ADUinterleaving.obj
 0001:0000d997       ?releaseOutgoingFrame@MP3ADUdeinterleaver@@AAEXXZ 1000e997 f   live555:MP3ADUinterleaving.obj
 0001:0000d9fd       ??0DeinterleavingFrameDescriptor@@QAE@XZ 1000e9fd f i live555:MP3ADUinterleaving.obj
 0001:0000da0e       ??1DeinterleavingFrameDescriptor@@UAE@XZ 1000ea0e f i live555:MP3ADUinterleaving.obj
 0001:0000da1e       ??0DeinterleavingFrames@@QAE@XZ 1000ea1e f   live555:MP3ADUinterleaving.obj
 0001:0000da82       ??_EDeinterleavingFrameDescriptor@@UAEPAXI@Z 1000ea82 f i live555:MP3ADUinterleaving.obj
 0001:0000dad6       ??_EDeinterleavingFrames@@UAEPAXI@Z 1000ead6 f i * CIL library *:* CIL module *
 0001:0000dad6       ??_GDeinterleavingFrames@@UAEPAXI@Z 1000ead6 f i live555:MP3ADUinterleaving.obj
 0001:0000daf5       ??1DeinterleavingFrames@@UAE@XZ 1000eaf5 f   live555:MP3ADUinterleaving.obj
 0001:0000db19       ?haveReleaseableFrame@DeinterleavingFrames@@QAE_NXZ 1000eb19 f   live555:MP3ADUinterleaving.obj
 0001:0000dba5       ?moveIncomingFrameIntoPlace@DeinterleavingFrames@@QAEXXZ 1000eba5 f   live555:MP3ADUinterleaving.obj
 0001:0000dbf6       ??_EMPEG4ESVideoRTPSource@@MAEPAXI@Z 1000ebf6 f i * CIL library *:* CIL module *
 0001:0000dbf6       ??_GMPEG4ESVideoRTPSource@@MAEPAXI@Z 1000ebf6 f i live555:MPEG4ESVideoRTPSource.obj
 0001:0000dc1b       ?processSpecialHeader@MPEG4ESVideoRTPSource@@EAE_NPAVBufferedPacket@@AAI@Z 1000ec1b f   live555:MPEG4ESVideoRTPSource.obj
 0001:0000dc6d       ?MIMEtype@MPEG4ESVideoRTPSource@@EBEPBDXZ 1000ec6d f   live555:MPEG4ESVideoRTPSource.obj
 0001:0000dc73       ??0QuickTimeGenericRTPSource@@AAE@AAVUsageEnvironment@@PAVGroupsock@@EIPBD@Z 1000ec73 f   live555:QuickTimeGenericRTPSource.obj
 0001:0000dcf2       ??_GQuickTimeGenericRTPSource@@MAEPAXI@Z 1000ecf2 f i live555:QuickTimeGenericRTPSource.obj
 0001:0000dcf2       ??_EQuickTimeGenericRTPSource@@MAEPAXI@Z 1000ecf2 f i * CIL library *:* CIL module *
 0001:0000dd11       ??1QuickTimeGenericRTPSource@@MAE@XZ 1000ed11 f   live555:QuickTimeGenericRTPSource.obj
 0001:0000dd3a       ?processSpecialHeader@QuickTimeGenericRTPSource@@EAE_NPAVBufferedPacket@@AAI@Z 1000ed3a f   live555:QuickTimeGenericRTPSource.obj
 0001:0000df8e       ?MIMEtype@QuickTimeGenericRTPSource@@EBEPBDXZ 1000ef8e f   live555:QuickTimeGenericRTPSource.obj
 0001:0000df9f       ??_GQTGenericBufferedPacket@@UAEPAXI@Z 1000ef9f f i live555:QuickTimeGenericRTPSource.obj
 0001:0000df9f       ??_EQTGenericBufferedPacket@@UAEPAXI@Z 1000ef9f f i * CIL library *:* CIL module *
 0001:0000dfc4       ?nextEnclosedFrameSize@QTGenericBufferedPacket@@EAEIAAPAEI@Z 1000efc4 f   live555:QuickTimeGenericRTPSource.obj
 0001:0000e00d       ?createNewPacket@QTGenericBufferedPacketFactory@@EAEPAVBufferedPacket@@PAVMultiFramedRTPSource@@@Z 1000f00d f   live555:QuickTimeGenericRTPSource.obj
 0001:0000e050       ?createNew@MPEG2TransportStreamFramer@@SAPAV1@AAVUsageEnvironment@@PAVFramedSource@@@Z 1000f050 f   live555:MPEG2TransportStreamFramer.obj
 0001:0000e087       ??0MPEG2TransportStreamFramer@@IAE@AAVUsageEnvironment@@PAVFramedSource@@@Z 1000f087 f   live555:MPEG2TransportStreamFramer.obj
 0001:0000e0ef       ??_EMPEG2TransportStreamFramer@@MAEPAXI@Z 1000f0ef f i * CIL library *:* CIL module *
 0001:0000e0ef       ??_GMPEG2TransportStreamFramer@@MAEPAXI@Z 1000f0ef f i live555:MPEG2TransportStreamFramer.obj
 0001:0000e10e       ??1MPEG2TransportStreamFramer@@MAE@XZ 1000f10e f   live555:MPEG2TransportStreamFramer.obj
 0001:0000e15c       ?doGetNextFrame@MPEG2TransportStreamFramer@@EAEXXZ 1000f15c f   live555:MPEG2TransportStreamFramer.obj
 0001:0000e1a4       ?doStopGettingFrames@MPEG2TransportStreamFramer@@EAEXXZ 1000f1a4 f   live555:MPEG2TransportStreamFramer.obj
 0001:0000e1d1       ?afterGettingFrame@MPEG2TransportStreamFramer@@CAXPAXIIUtimeval@@I@Z 1000f1d1 f   live555:MPEG2TransportStreamFramer.obj
 0001:0000e1ec       ?afterGettingFrame1@MPEG2TransportStreamFramer@@AAEXIUtimeval@@@Z 1000f1ec f   live555:MPEG2TransportStreamFramer.obj
 0001:0000e321       ?updateTSPacketDurationEstimate@MPEG2TransportStreamFramer@@AAE_NPAEN@Z 1000f321 f   live555:MPEG2TransportStreamFramer.obj
 0001:0000e5bc       ?createNew@JPEGVideoRTPSource@@SAPAV1@AAVUsageEnvironment@@PAVGroupsock@@EIII@Z 1000f5bc f   live555:JPEGVideoRTPSource.obj
 0001:0000e633       ??_GJPEGVideoRTPSource@@MAEPAXI@Z 1000f633 f i live555:JPEGVideoRTPSource.obj
 0001:0000e633       ??_EJPEGVideoRTPSource@@MAEPAXI@Z 1000f633 f i * CIL library *:* CIL module *
 0001:0000e8e0       ?processSpecialHeader@JPEGVideoRTPSource@@EAE_NPAVBufferedPacket@@AAI@Z 1000f8e0 f   live555:JPEGVideoRTPSource.obj
 0001:0000eb4c       ?MIMEtype@JPEGVideoRTPSource@@EBEPBDXZ 1000fb4c f   live555:JPEGVideoRTPSource.obj
 0001:0000eb52       ?reset@JPEGBufferedPacket@@EAEXXZ 1000fb52 f   live555:JPEGVideoRTPSource.obj
 0001:0000eb6d       ?nextEnclosedFrameSize@JPEGBufferedPacket@@EAEIAAPAEI@Z 1000fb6d f   live555:JPEGVideoRTPSource.obj
 0001:0000eba5       ?createNewPacket@JPEGBufferedPacketFactory@@EAEPAVBufferedPacket@@PAVMultiFramedRTPSource@@@Z 1000fba5 f   live555:JPEGVideoRTPSource.obj
 0001:0000ebe2       ??_GADUBufferedPacket@@UAEPAXI@Z 1000fbe2 f i live555:MP3ADURTPSource.obj
 0001:0000ebe2       ??_EJPEGBufferedPacket@@UAEPAXI@Z 1000fbe2 f i * CIL library *:* CIL module *
 0001:0000ebe2       ??_GBufferedPacket@@UAEPAXI@Z 1000fbe2 f i live555:MultiFramedRTPSource.obj
 0001:0000ebe2       ??_GJPEGBufferedPacket@@UAEPAXI@Z 1000fbe2 f i live555:JPEGVideoRTPSource.obj
 0001:0000ebe2       ??_EBufferedPacket@@UAEPAXI@Z 1000fbe2 f i * CIL library *:* CIL module *
 0001:0000ebe2       ??_EADUBufferedPacket@@UAEPAXI@Z 1000fbe2 f i * CIL library *:* CIL module *
 0001:0000ec01       ??_GMPEG1or2AudioRTPSource@@MAEPAXI@Z 1000fc01 f i live555:MPEG1or2AudioRTPSource.obj
 0001:0000ec01       ??_EMPEG1or2AudioRTPSource@@MAEPAXI@Z 1000fc01 f i * CIL library *:* CIL module *
 0001:0000ec26       ?processSpecialHeader@MPEG1or2AudioRTPSource@@EAE_NPAVBufferedPacket@@AAI@Z 1000fc26 f   live555:MPEG1or2AudioRTPSource.obj
 0001:0000ec48       ?MIMEtype@MPEG1or2AudioRTPSource@@EBEPBDXZ 1000fc48 f   live555:MPEG1or2AudioRTPSource.obj
 0001:0000ec4e       ??0MPEG4GenericRTPSource@@AAE@AAVUsageEnvironment@@PAVGroupsock@@EIPBD2III@Z 1000fc4e f   live555:MPEG4GenericRTPSource.obj
 0001:0000ed5d       ??_GMPEG4GenericRTPSource@@MAEPAXI@Z 1000fd5d f i live555:MPEG4GenericRTPSource.obj
 0001:0000ed5d       ??_EMPEG4GenericRTPSource@@MAEPAXI@Z 1000fd5d f i * CIL library *:* CIL module *
 0001:0000ed7c       ??1MPEG4GenericRTPSource@@MAE@XZ 1000fd7c f   live555:MPEG4GenericRTPSource.obj
 0001:0000edb1       ?processSpecialHeader@MPEG4GenericRTPSource@@EAE_NPAVBufferedPacket@@AAI@Z 1000fdb1 f   live555:MPEG4GenericRTPSource.obj
 0001:0000ef5f       ?MIMEtype@MPEG4GenericRTPSource@@EBEPBDXZ 1000ff5f f   live555:MPEG4GenericRTPSource.obj
 0001:0000ef66       ??_EMPEG4GenericBufferedPacket@@UAEPAXI@Z 1000ff66 f i * CIL library *:* CIL module *
 0001:0000ef66       ??_GMPEG4GenericBufferedPacket@@UAEPAXI@Z 1000ff66 f i live555:MPEG4GenericRTPSource.obj
 0001:0000ef8b       ?nextEnclosedFrameSize@MPEG4GenericBufferedPacket@@EAEIAAPAEI@Z 1000ff8b f   live555:MPEG4GenericRTPSource.obj
 0001:0000f03e       ?createNewPacket@MPEG4GenericBufferedPacketFactory@@EAEPAVBufferedPacket@@PAVMultiFramedRTPSource@@@Z 1001003e f   live555:MPEG4GenericRTPSource.obj
 0001:0000f081       ??1RTCPMemberDatabase@@UAE@XZ 10010081 f i live555:RTCP.obj
 0001:0000f095       ??_GRTCPMemberDatabase@@UAEPAXI@Z 10010095 f i live555:RTCP.obj
 0001:0000f095       ??_ERTCPMemberDatabase@@UAEPAXI@Z 10010095 f i * CIL library *:* CIL module *
 0001:0000f0b4       ?reapOldMembers@RTCPMemberDatabase@@QAEXI@Z 100100b4 f   live555:RTCP.obj
 0001:0000f149       ??0RTCPInstance@@IAE@AAVUsageEnvironment@@PAVGroupsock@@IPBEPAVRTPSink@@PBVRTPSource@@_N@Z 10010149 f   live555:RTCP.obj
 0001:0000f322       ??_ERTCPInstance@@MAEPAXI@Z 10010322 f i * CIL library *:* CIL module *
 0001:0000f322       ??_GRTCPInstance@@MAEPAXI@Z 10010322 f i live555:RTCP.obj
 0001:0000f341       ??1RTCPInstance@@MAE@XZ    10010341 f   live555:RTCP.obj
 0001:0000f426       ?incomingReportHandler@RTCPInstance@@CAXPAV1@H@Z 10010426 f   live555:RTCP.obj
 0001:0000f432       ?incomingReportHandler1@RTCPInstance@@AAEXXZ 10010432 f   live555:RTCP.obj
 0001:0000f8fe       ?sendReport@RTCPInstance@@QAEXXZ 100108fe f   live555:RTCP.obj
 0001:0000f942       ?sendBYE@RTCPInstance@@QAEXXZ 10010942 f   live555:RTCP.obj
 0001:0000f983       ?sendBuiltPacket@RTCPInstance@@AAEXXZ 10010983 f   live555:RTCP.obj
 0001:0000f9be       ?removeSSRC@RTCPInstance@@QAEXI_N@Z 100109be f   live555:RTCP.obj
 0001:0000fa4f       ?onExpire@RTCPInstance@@CAXPAV1@@Z 10010a4f f   live555:RTCP.obj
 0001:0000fa61       ?addReport@RTCPInstance@@AAEXXZ 10010a61 f   live555:RTCP.obj
 0001:0000faa6       ?addSR@RTCPInstance@@AAEXXZ 10010aa6 f   live555:RTCP.obj
 0001:0000fb52       ?enqueueCommonReportPrefix@RTCPInstance@@AAEXEII@Z 10010b52 f   live555:RTCP.obj
 0001:0000fbad       ?enqueueCommonReportSuffix@RTCPInstance@@AAEXXZ 10010bad f   live555:RTCP.obj
 0001:0000fc4f       ?enqueueReportBlock@RTCPInstance@@AAEXPAVRTPReceptionStats@@@Z 10010c4f f   live555:RTCP.obj
 0001:0000fd58       ?addSDES@RTCPInstance@@AAEXXZ 10010d58 f   live555:RTCP.obj
 0001:0000fddb       ?schedule@RTCPInstance@@QAEXN@Z 10010ddb f   live555:RTCP.obj
 0001:0000fe40       ?onExpire1@RTCPInstance@@AAEXXZ 10010e40 f   live555:RTCP.obj
 0001:0000fee1       _Reschedule                10010ee1 f   live555:RTCP.obj
 0001:0000ff10       _NewMember                 10010f10 f   live555:RTCP.obj
 0001:0000ff60       ??_EVP8VideoRTPSource@@MAEPAXI@Z 10010f60 f i * CIL library *:* CIL module *
 0001:0000ff60       ??_GVP8VideoRTPSource@@MAEPAXI@Z 10010f60 f i live555:VP8VideoRTPSource.obj
 0001:0000ff85       ?processSpecialHeader@VP8VideoRTPSource@@MAE_NPAVBufferedPacket@@AAI@Z 10010f85 f   live555:VP8VideoRTPSource.obj
 0001:00010024       ?MIMEtype@VP8VideoRTPSource@@MBEPBDXZ 10011024 f   live555:VP8VideoRTPSource.obj
 0001:0001002a       ?createNew@AMRAudioRTPSource@@SAPAVAMRAudioSource@@AAVUsageEnvironment@@PAVGroupsock@@AAPAVRTPSource@@E_NI3I33@Z 1001102a f   live555:AMRAudioRTPSource.obj
 0001:00010166       ??0RawAMRRTPSource@@AAE@AAVUsageEnvironment@@PAVGroupsock@@E_N222@Z 10011166 f   live555:AMRAudioRTPSource.obj
 0001:000101f8       ??_GRawAMRRTPSource@@EAEPAXI@Z 100111f8 f i live555:AMRAudioRTPSource.obj
 0001:000101f8       ??_ERawAMRRTPSource@@EAEPAXI@Z 100111f8 f i * CIL library *:* CIL module *
 0001:00010217       ??1RawAMRRTPSource@@EAE@XZ 10011217 f   live555:AMRAudioRTPSource.obj
 0001:00010234       ?processSpecialHeader@RawAMRRTPSource@@EAE_NPAVBufferedPacket@@AAI@Z 10011234 f   live555:AMRAudioRTPSource.obj
 0001:0001036e       ?MIMEtype@RawAMRRTPSource@@EBEPBDXZ 1001136e f   live555:AMRAudioRTPSource.obj
 0001:00010383       ?hasBeenSynchronizedUsingRTCP@RawAMRRTPSource@@EAE_NXZ 10011383 f   live555:AMRAudioRTPSource.obj
 0001:0001038a       ??_GAMRBufferedPacket@@UAEPAXI@Z 1001138a f i live555:AMRAudioRTPSource.obj
 0001:0001038a       ??_EAMRBufferedPacket@@UAEPAXI@Z 1001138a f i * CIL library *:* CIL module *
 0001:000103af       ?nextEnclosedFrameSize@AMRBufferedPacket@@EAEIAAPAEI@Z 100113af f   live555:AMRAudioRTPSource.obj
 0001:00010447       ?createNewPacket@AMRBufferedPacketFactory@@EAEPAVBufferedPacket@@PAVMultiFramedRTPSource@@@Z 10011447 f   live555:AMRAudioRTPSource.obj
 0001:0001048a       ??0AMRDeinterleaver@@AAE@AAVUsageEnvironment@@_NIIPAVRawAMRRTPSource@@@Z 1001148a f   live555:AMRAudioRTPSource.obj
 0001:000104f4       ??_EAMRDeinterleaver@@EAEPAXI@Z 100114f4 f i * CIL library *:* CIL module *
 0001:000104f4       ??_GAMRDeinterleaver@@EAEPAXI@Z 100114f4 f i live555:AMRAudioRTPSource.obj
 0001:00010513       ??1AMRDeinterleaver@@EAE@XZ 10011513 f   live555:AMRAudioRTPSource.obj
 0001:0001055a       ?doGetNextFrame@AMRDeinterleaver@@EAEXXZ 1001155a f   live555:AMRAudioRTPSource.obj
 0001:000105c4       ?doStopGettingFrames@AMRDeinterleaver@@EAEXXZ 100115c4 f   live555:AMRAudioRTPSource.obj
 0001:000105d4       ?afterGettingFrame@AMRDeinterleaver@@CAXPAXIIUtimeval@@I@Z 100115d4 f   live555:AMRAudioRTPSource.obj
 0001:00010601       ??0AMRDeinterleavingBuffer@@QAE@II@Z 10011601 f   live555:AMRAudioRTPSource.obj
 0001:000106f0       ??_EAMRDeinterleavingBuffer@@UAEPAXI@Z 100116f0 f i * CIL library *:* CIL module *
 0001:000106f0       ??_GAMRDeinterleavingBuffer@@UAEPAXI@Z 100116f0 f i live555:AMRAudioRTPSource.obj
 0001:0001070f       ??_EFrameDescriptor@AMRDeinterleavingBuffer@@UAEPAXI@Z 1001170f f i live555:AMRAudioRTPSource.obj
 0001:00010759       ??1AMRDeinterleavingBuffer@@UAE@XZ 10011759 f   live555:AMRAudioRTPSource.obj
 0001:000107a8       ?deliverIncomingFrame@AMRDeinterleavingBuffer@@QAEXIPAVRawAMRRTPSource@@Utimeval@@@Z 100117a8 f   live555:AMRAudioRTPSource.obj
 0001:00010908       ?retrieveFrame@AMRDeinterleavingBuffer@@QAE_NPAEIAAI1AAEAAUtimeval@@AA_N@Z 10011908 f   live555:AMRAudioRTPSource.obj
 0001:000109e5       ??0FrameDescriptor@AMRDeinterleavingBuffer@@QAE@XZ 100119e5 f   live555:AMRAudioRTPSource.obj
 0001:000109f6       ??1FrameDescriptor@AMRDeinterleavingBuffer@@UAE@XZ 100119f6 f   live555:AMRAudioRTPSource.obj
 0001:00010b72       ??_EOutputSocket@@UAEPAXI@Z 10011b72 f i * CIL library *:* CIL module *
 0001:00010b72       ??_GOutputSocket@@UAEPAXI@Z 10011b72 f i live555:Groupsock.obj
 0001:00010b97       ??0OutputSocket@@IAE@AAVUsageEnvironment@@VPort@@@Z 10011b97 f   live555:Groupsock.obj
 0001:00010bc7       ??1OutputSocket@@UAE@XZ    10011bc7 f   live555:Groupsock.obj
 0001:00010bd2       ?write@OutputSocket@@QAE_NIVPort@@EPAEI@Z 10011bd2 f   live555:Groupsock.obj
 0001:00010c8d       ?handleRead@OutputSocket@@EAE_NPAEIAAIAAUsockaddr_in@@@Z 10011c8d f   live555:Groupsock.obj
 0001:00010c92       ??_EdestRecord@@UAEPAXI@Z  10011c92 f i * CIL library *:* CIL module *
 0001:00010c92       ??_GdestRecord@@UAEPAXI@Z  10011c92 f i live555:Groupsock.obj
 0001:00010cb1       ??1GroupEId@@QAE@XZ        10011cb1 f i live555:Groupsock.obj
 0001:00010cb9       ??1destRecord@@UAE@XZ      10011cb9 f   live555:Groupsock.obj
 0001:00010cef       ??0Groupsock@@QAE@AAVUsageEnvironment@@ABUin_addr@@VPort@@E@Z 10011cef f   live555:Groupsock.obj
 0001:00010e19       ??_GGroupsock@@UAEPAXI@Z   10011e19 f i live555:Groupsock.obj
 0001:00010e19       ??_EGroupsock@@UAEPAXI@Z   10011e19 f i * CIL library *:* CIL module *
 0001:00010e38       ??0Groupsock@@QAE@AAVUsageEnvironment@@ABUin_addr@@1VPort@@@Z 10011e38 f   live555:Groupsock.obj
 0001:00010fbd       ??1Groupsock@@UAE@XZ       10011fbd f   live555:Groupsock.obj
 0001:0001105c       ?changeDestinationParameters@Groupsock@@QAEXABUin_addr@@VPort@@H@Z 1001205c f   live555:Groupsock.obj
 0001:00011169       ?addDestination@Groupsock@@QAEXABUin_addr@@ABVPort@@@Z 10012169 f   live555:Groupsock.obj
 0001:00011210       ?output@Groupsock@@QAE_NAAVUsageEnvironment@@EPAEIPAVDirectedNetInterface@@@Z 10012210 f   live555:Groupsock.obj
 0001:00011303       ?handleRead@Groupsock@@UAE_NPAEIAAIAAUsockaddr_in@@@Z 10012303 f   live555:Groupsock.obj
 0001:0001146f       ?wasLoopedBackFromUs@Groupsock@@QAE_NAAVUsageEnvironment@@AAUsockaddr_in@@@Z 1001246f f   live555:Groupsock.obj
 0001:0001149a       ?outputToAllMembersExcept@Groupsock@@AAEHPAVDirectedNetInterface@@EPAEII@Z 1001249a f   live555:Groupsock.obj
 0001:000115d9       ??6@YAAAVUsageEnvironment@@AAV0@ABVGroupsock@@@Z 100125d9 f   live555:Groupsock.obj
 0001:000116e9       ??_EDVVideoRTPSource@@MAEPAXI@Z 100126e9 f i * CIL library *:* CIL module *
 0001:000116e9       ??_GDVVideoRTPSource@@MAEPAXI@Z 100126e9 f i live555:DVVideoRTPSource.obj
 0001:0001170e       ?processSpecialHeader@DVVideoRTPSource@@EAE_NPAVBufferedPacket@@AAI@Z 1001270e f   live555:DVVideoRTPSource.obj
 0001:00011760       ?MIMEtype@DVVideoRTPSource@@EBEPBDXZ 10012760 f   live555:DVVideoRTPSource.obj
 0001:00011766       ?createNew@MP3ADURTPSource@@SAPAV1@AAVUsageEnvironment@@PAVGroupsock@@EI@Z 10012766 f   live555:MP3ADURTPSource.obj
 0001:000117cb       ??_EMP3ADURTPSource@@MAEPAXI@Z 100127cb f i * CIL library *:* CIL module *
 0001:000117cb       ??_GMP3ADURTPSource@@MAEPAXI@Z 100127cb f i live555:MP3ADURTPSource.obj
 0001:000117f0       ?MIMEtype@MP3ADURTPSource@@EBEPBDXZ 100127f0 f   live555:MP3ADURTPSource.obj
 0001:000117f6       ?nextEnclosedFrameSize@ADUBufferedPacket@@EAEIAAPAEI@Z 100127f6 f   live555:MP3ADURTPSource.obj
 0001:0001181e       ?createNewPacket@ADUBufferedPacketFactory@@EAEPAVBufferedPacket@@PAVMultiFramedRTPSource@@@Z 1001281e f   live555:MP3ADURTPSource.obj
 0001:0001185b       ?MIMEtype@MediaSource@@UBEPBDXZ 1001285b f   live555:MediaSource.obj
 0001:00011861       ?getAttributes@MediaSource@@UBEXXZ 10012861 f   live555:MediaSource.obj
 0001:0001186f       ??1BasicUsageEnvironment0@@MAE@XZ 1001286f f   live555:BasicUsageEnvironment0.obj
 0001:00011876       ?getResultMsg@BasicUsageEnvironment0@@UBEPBDXZ 10012876 f   live555:BasicUsageEnvironment0.obj
 0001:0001187a       ?setResultMsg@BasicUsageEnvironment0@@UAEXPBD@Z 1001287a f   live555:BasicUsageEnvironment0.obj
 0001:0001188e       ?setResultMsg@BasicUsageEnvironment0@@UAEXPBD0@Z 1001288e f   live555:BasicUsageEnvironment0.obj
 0001:000118ab       ?setResultMsg@BasicUsageEnvironment0@@UAEXPBD00@Z 100128ab f   live555:BasicUsageEnvironment0.obj
 0001:000118cb       ?setResultErrMsg@BasicUsageEnvironment0@@UAEXPBDH@Z 100128cb f   live555:BasicUsageEnvironment0.obj
 0001:000118fe       ?appendToResultMsg@BasicUsageEnvironment0@@UAEXPBD@Z 100128fe f   live555:BasicUsageEnvironment0.obj
 0001:00011956       ?reportBackgroundError@BasicUsageEnvironment0@@UAEXXZ 10012956 f   live555:BasicUsageEnvironment0.obj
 0001:00011974       ?handleTimeout@AlarmHandler@@EAEXXZ 10012974 f i live555:BasicTaskScheduler0.obj
 0001:00011988       ??0BasicTaskScheduler0@@IAE@XZ 10012988 f   live555:BasicTaskScheduler0.obj
 0001:00011a3b       ??_EBasicTaskScheduler0@@UAEPAXI@Z 10012a3b f i * CIL library *:* CIL module *
 0001:00011a3b       ??_GBasicTaskScheduler0@@UAEPAXI@Z 10012a3b f i live555:BasicTaskScheduler0.obj
 0001:00011a5a       ??1BasicTaskScheduler0@@UAE@XZ 10012a5a f   live555:BasicTaskScheduler0.obj
 0001:00011a9b       ?scheduleDelayedTask@BasicTaskScheduler0@@UAEPAX_JP6AXPAX@Z1@Z 10012a9b f   live555:BasicTaskScheduler0.obj
 0001:00011b27       ?unscheduleDelayedTask@BasicTaskScheduler0@@UAEXAAPAX@Z 10012b27 f   live555:BasicTaskScheduler0.obj
 0001:00011b67       ?doEventLoop@BasicTaskScheduler0@@UAEXPAD@Z 10012b67 f   live555:BasicTaskScheduler0.obj
 0001:00011b8b       ?createEventTrigger@BasicTaskScheduler0@@UAEIP6AXPAX@Z@Z 10012b8b f   live555:BasicTaskScheduler0.obj
 0001:00011bda       ?deleteEventTrigger@BasicTaskScheduler0@@UAEXI@Z 10012bda f   live555:BasicTaskScheduler0.obj
 0001:00011c2e       ?triggerEvent@BasicTaskScheduler0@@UAEXIPAX@Z 10012c2e f   live555:BasicTaskScheduler0.obj
 0001:00011c60       ??0HandlerDescriptor@@AAE@PAV0@@Z 10012c60 f   live555:BasicTaskScheduler0.obj
 0001:00011c98       ??_GHandlerDescriptor@@EAEPAXI@Z 10012c98 f i live555:BasicTaskScheduler0.obj
 0001:00011c98       ??_EHandlerDescriptor@@EAEPAXI@Z 10012c98 f i * CIL library *:* CIL module *
 0001:00011cb7       ??1HandlerDescriptor@@EAE@XZ 10012cb7 f   live555:BasicTaskScheduler0.obj
 0001:00011cd0       ??_GHandlerSet@@UAEPAXI@Z  10012cd0 f i live555:BasicTaskScheduler0.obj
 0001:00011cd0       ??_EHandlerSet@@UAEPAXI@Z  10012cd0 f i * CIL library *:* CIL module *
 0001:00011cef       ??1HandlerSet@@UAE@XZ      10012cef f   live555:BasicTaskScheduler0.obj
 0001:00011d2e       ?lookupHandler@HandlerSet@@AAEPAVHandlerDescriptor@@H@Z 10012d2e f   live555:BasicTaskScheduler0.obj
 0001:00011d6c       ??_EHandlerIterator@@UAEPAXI@Z 10012d6c f i * CIL library *:* CIL module *
 0001:00011d6c       ??_GHandlerIterator@@UAEPAXI@Z 10012d6c f i live555:BasicTaskScheduler0.obj
 0001:00011d8c       ??1HandlerIterator@@UAE@XZ 10012d8c f   live555:BasicTaskScheduler0.obj
 0001:00011d93       ?next@HandlerIterator@@QAEPAVHandlerDescriptor@@XZ 10012d93 f   live555:BasicTaskScheduler0.obj
 0001:00011e60       ??0RTPInterface@@QAE@PAVMedium@@PAVGroupsock@@@Z 10012e60 f   live555:RTPInterface.obj
 0001:00011ec0       ??_ERTPInterface@@UAEPAXI@Z 10012ec0 f i * CIL library *:* CIL module *
 0001:00011ec0       ??_GRTPInterface@@UAEPAXI@Z 10012ec0 f i live555:RTPInterface.obj
 0001:00011edf       ??1RTPInterface@@UAE@XZ    10012edf f   live555:RTPInterface.obj
 0001:00011ef3       ?setStreamSocket@RTPInterface@@QAEXHE@Z 10012ef3 f   live555:RTPInterface.obj
 0001:00011f21       ?addStreamSocket@RTPInterface@@QAEXHE@Z 10012f21 f   live555:RTPInterface.obj
 0001:00011fc9       ?sendPacket@RTPInterface@@QAE_NPAEI@Z 10012fc9 f   live555:RTPInterface.obj
 0001:00012066       ?startNetworkReading@RTPInterface@@QAEXP6AXPAXH@Z@Z 10013066 f   live555:RTPInterface.obj
 0001:000120bd       ?handleRead@RTPInterface@@QAE_NPAEIAAIAAUsockaddr_in@@AA_N@Z 100130bd f   live555:RTPInterface.obj
 0001:0001218c       ?stopNetworkReading@RTPInterface@@QAEXXZ 1001318c f   live555:RTPInterface.obj
 0001:000121cc       ?sendDataOverTCP@RTPInterface@@AAE_NHPBEI_N@Z 100131cc f   live555:RTPInterface.obj
 0001:00012249       ??_GSocketDescriptor@@UAEPAXI@Z 10013249 f i live555:RTPInterface.obj
 0001:00012249       ??_ESocketDescriptor@@UAEPAXI@Z 10013249 f i * CIL library *:* CIL module *
 0001:00012268       ??1SocketDescriptor@@UAE@XZ 10013268 f   live555:RTPInterface.obj
 0001:0001231f       ?registerRTPInterface@SocketDescriptor@@QAEXEPAVRTPInterface@@@Z 1001331f f   live555:RTPInterface.obj
 0001:00012368       ?tcpReadHandler@SocketDescriptor@@CAXPAV1@H@Z 10013368 f   live555:RTPInterface.obj
 0001:00012378       ?tcpReadHandler1@SocketDescriptor@@AAEXH@Z 10013378 f   live555:RTPInterface.obj
 0001:00012500       ??_GtcpStreamRecord@@UAEPAXI@Z 10013500 f i live555:RTPInterface.obj
 0001:00012500       ??_EtcpStreamRecord@@UAEPAXI@Z 10013500 f i * CIL library *:* CIL module *
 0001:0001251f       ??1tcpStreamRecord@@UAE@XZ 1001351f f   live555:RTPInterface.obj
 0001:00012533       ?parseRTSPRequestString@@YA_NPBDIPADI1I1I1I1IAAI@Z 10013533 f   live555:RTSPCommon.obj
 0001:00012863       ?parseRangeParam@@YA_NPBDAAN1AAPAD2@Z 10013863 f   live555:RTSPCommon.obj
 0001:00012a94       ?base64Decode@@YAPAEPBDAAI_N@Z 10013a94 f   live555:Base64.obj
 0001:00012b8c       ?base64Encode@@YAPADPBDI@Z 10013b8c f   live555:Base64.obj
 0001:00012ccd       ??0MultiFramedRTPSource@@IAE@AAVUsageEnvironment@@PAVGroupsock@@EIPAVBufferedPacketFactory@@@Z 10013ccd f   live555:MultiFramedRTPSource.obj
 0001:00012d63       ??_GMultiFramedRTPSource@@MAEPAXI@Z 10013d63 f i live555:MultiFramedRTPSource.obj
 0001:00012d63       ??_EMultiFramedRTPSource@@MAEPAXI@Z 10013d63 f i * CIL library *:* CIL module *
 0001:00012d82       ??1MultiFramedRTPSource@@MAE@XZ 10013d82 f   live555:MultiFramedRTPSource.obj
 0001:00012dc6       ?processSpecialHeader@MultiFramedRTPSource@@MAE_NPAVBufferedPacket@@AAI@Z 10013dc6 f   live555:MultiFramedRTPSource.obj
 0001:00012dd5       ?packetIsUsableInJitterCalculation@MultiFramedRTPSource@@MAE_NPAEI@Z 10013dd5 f   live555:MultiFramedRTPSource.obj
 0001:00012dda       ?doStopGettingFrames@MultiFramedRTPSource@@MAEXXZ 10013dda f   live555:MultiFramedRTPSource.obj
 0001:00012e1f       ?doGetNextFrame@MultiFramedRTPSource@@EAEXXZ 10013e1f f   live555:MultiFramedRTPSource.obj
 0001:00012e64       ?doGetNextFrame1@MultiFramedRTPSource@@AAEXXZ 10013e64 f   live555:MultiFramedRTPSource.obj
 0001:0001305c       ?setPacketReorderingThresholdTime@MultiFramedRTPSource@@EAEXI@Z 1001405c f   live555:MultiFramedRTPSource.obj
 0001:0001306f       ?networkReadHandler@MultiFramedRTPSource@@CAXPAV1@H@Z 1001406f f   live555:MultiFramedRTPSource.obj
 0001:0001307b       ?networkReadHandler1@MultiFramedRTPSource@@AAEXXZ 1001407b f   live555:MultiFramedRTPSource.obj
 0001:00013375       ??0BufferedPacket@@QAE@XZ  10014375 f   live555:MultiFramedRTPSource.obj
 0001:00013399       ??1BufferedPacket@@UAE@XZ  10014399 f   live555:MultiFramedRTPSource.obj
 0001:000133ba       ?reset@BufferedPacket@@MAEXXZ 100143ba f   live555:MultiFramedRTPSource.obj
 0001:000133c9       ?nextEnclosedFrameSize@BufferedPacket@@MAEIAAPAEI@Z 100143c9 f   live555:MultiFramedRTPSource.obj
 0001:000133d3       ?getNextEnclosedFrameParameters@BufferedPacket@@MAEXAAPAEIAAI1@Z 100143d3 f   live555:MultiFramedRTPSource.obj
 0001:000133f0       ?skip@BufferedPacket@@QAEXI@Z 100143f0 f   live555:MultiFramedRTPSource.obj
 0001:00013408       ?use@BufferedPacket@@QAEXPAEIAAI1AAG1AAUtimeval@@AA_N4@Z 10014408 f   live555:MultiFramedRTPSource.obj
 0001:000134c5       ?createNewPacket@BufferedPacketFactory@@UAEPAVBufferedPacket@@PAVMultiFramedRTPSource@@@Z 100144c5 f   live555:MultiFramedRTPSource.obj
 0001:000134f5       ??0ReorderingPacketBuffer@@QAE@PAVBufferedPacketFactory@@@Z 100144f5 f   live555:MultiFramedRTPSource.obj
 0001:00013544       ??_EReorderingPacketBuffer@@UAEPAXI@Z 10014544 f i * CIL library *:* CIL module *
 0001:00013544       ??_GReorderingPacketBuffer@@UAEPAXI@Z 10014544 f i live555:MultiFramedRTPSource.obj
 0001:00013563       ??1ReorderingPacketBuffer@@UAE@XZ 10014563 f   live555:MultiFramedRTPSource.obj
 0001:00013580       ?reset@ReorderingPacketBuffer@@QAEXXZ 10014580 f   live555:MultiFramedRTPSource.obj
 0001:000135b3       ?storePacket@ReorderingPacketBuffer@@QAE_NPAVBufferedPacket@@@Z 100145b3 f   live555:MultiFramedRTPSource.obj
 0001:000136ac       ?releaseUsedPacket@ReorderingPacketBuffer@@QAEXPAVBufferedPacket@@@Z 100146ac f   live555:MultiFramedRTPSource.obj
 0001:000136e1       ??0FramedFilter@@IAE@AAVUsageEnvironment@@PAVFramedSource@@@Z 100146e1 f   live555:FramedFilter.obj
 0001:00013702       ??_EFramedFilter@@MAEPAXI@Z 10014702 f i * CIL library *:* CIL module *
 0001:00013702       ??_GFramedFilter@@MAEPAXI@Z 10014702 f i live555:FramedFilter.obj
 0001:00013721       ??1FramedFilter@@MAE@XZ    10014721 f   live555:FramedFilter.obj
 0001:0001375b       ?MIMEtype@FramedFilter@@MBEPBDXZ 1001475b f   live555:FramedFilter.obj
 0001:0001376d       ?getAttributes@FramedFilter@@MBEXXZ 1001476d f   live555:FramedFilter.obj
 0001:0001377a       ?doStopGettingFrames@FramedFilter@@MAEXXZ 1001477a f   live555:FramedFilter.obj
 0001:00013794       ??0MP3FrameParams@@QAE@XZ  10014794 f   live555:MP3Internals.obj
 0001:0001390c       ?setParamsFromHeader@MP3FrameParams@@QAEXXZ 1001490c f   live555:MP3Internals.obj
 0001:00013aed       ?GetADUInfoFromMP3Frame@@YA_NPBEIAAI1AAUMP3SideInfo@@111@Z 10014aed f   live555:MP3Internals.obj
 0001:00013fae       ?getSideInfo@MP3FrameParams@@QAEXAAUMP3SideInfo@@@Z 10014fae f   live555:MP3Internals.obj
 0001:0001430e       ?ZeroOutMP3SideInfo@@YA_NPAEII@Z 1001530e f   live555:MP3Internals.obj
 0001:0001440c       ?generateDescriptor@ADUdescriptor@@SAIAAPAEI@Z 1001540c f   live555:MP3ADUdescriptor.obj
 0001:00014440       ?getRemainingFrameSize@ADUdescriptor@@SAIAAPAE@Z 10015440 f   live555:MP3ADUdescriptor.obj
 0001:0001446a       ?putBits@BitVector@@QAEXII@Z 1001546a f   live555:BitVector.obj
 0001:000144d7       ?put1Bit@BitVector@@QAEXI@Z 100154d7 f   live555:BitVector.obj
 0001:00014511       ?getBits@BitVector@@QAEII@Z 10015511 f   live555:BitVector.obj
 0001:00014591       ?get1Bit@BitVector@@QAEIXZ 10015591 f   live555:BitVector.obj
 0001:000145c2       ?shiftBits@@YAXPAEIPBEII@Z 100155c2 f   live555:BitVector.obj
 0001:00014630       ?convertToRTPTimestamp@RTPSink@@QAEIUtimeval@@@Z 10015630 f   live555:RTPSink.obj
 0001:000146a0       ?noteIncomingRR@RTPTransmissionStatsDB@@QAEXIABUsockaddr_in@@IIIII@Z 100156a0 f   live555:RTPSink.obj
 0001:0001470c       ??0RTPTransmissionStats@@AAE@AAVRTPSink@@I@Z 1001570c f   live555:RTPSink.obj
 0001:00014768       ??_GRTPTransmissionStats@@EAEPAXI@Z 10015768 f i live555:RTPSink.obj
 0001:00014768       ??_ERTPTransmissionStats@@EAEPAXI@Z 10015768 f i * CIL library *:* CIL module *
 0001:00014788       ?noteIncomingRR@RTPTransmissionStats@@AAEXABUsockaddr_in@@IIIII@Z 10015788 f   live555:RTPSink.obj
 0001:00014832       _rtcp_interval             10015832 f   live555:rtcp_from_spec.obj
 0001:000148eb       _OnExpire                  100158eb f   live555:rtcp_from_spec.obj
 0001:00014a3d       _OnReceive                 10015a3d f   live555:rtcp_from_spec.obj
 0001:00014bbc       ?MIMEtype@AMRAudioSource@@EBEPBDXZ 10015bbc f   live555:AMRAudioSource.obj
 0001:00014bc2       ??4Scope@@QAEAAV0@ABV0@@Z  10015bc2 f   live555:GroupEId.obj
 0001:00014c39       ??1Scope@@QAE@XZ           10015c39 f   live555:GroupEId.obj
 0001:00014c4b       ??0GroupEId@@QAE@ABUin_addr@@GABVScope@@I@Z 10015c4b f   live555:GroupEId.obj
 0001:00014c94       ?init@GroupEId@@AAEXABUin_addr@@0GABVScope@@I@Z 10015c94 f   live555:GroupEId.obj
 0001:00014cc4       ??1_Generic_error_category@std@@$$FUAE@XZ 10015cc4 f i libapi.obj
 0001:00014cc4       ??1error_category@std@@$$FUAE@XZ 10015cc4 f i libapi.obj
 0001:00014cc4       ??1_System_error_category@std@@$$FUAE@XZ 10015cc4 f i libapi.obj
 0001:00014cc4       ??1_Iostream_error_category@std@@$$FUAE@XZ 10015cc4 f i libapi.obj
 0001:00014cd8       ??0ProxyPlaybackSession@player@odm@@$$FQ$AAM@PAVIPlaybackSession@onvifmp@@@Z 10015cd8 f i libapi.obj
 0001:00014cf4       ?Close@ProxyPlaybackSession@player@odm@@$$FU$AAMXXZ 10015cf4 f i libapi.obj
 0001:00014d10       ?InitializeLifetimeService@ProxyPlaybackSession@player@odm@@$$FU$AAMP$AAVObject@System@@XZ 10015d10 f i libapi.obj
 0001:00014d20       ?PlaybackSessionInitialized@Live555@player@odm@@$$FQ$AAM_NPAVIPlaybackSession@onvifmp@@@Z 10015d20 f i libapi.obj
 0001:00014d40       ?PlaybackSessionShutdown@Live555@player@odm@@$$FQ$AAMXXZ 10015d40 f i libapi.obj
 0001:00014d58       ?MetadataCallback@Live555@player@odm@@$$FQ$AAMXPAXH_NH@Z 10015d58 f i libapi.obj
 0001:00014da8       ??1?$_Func_base@XPAXH_NH@std@@$$FUAE@XZ 10015da8 f i libapi.obj
 0001:00014dbc       ??$?0$$$V@?$_Ref_count_obj@VVideoBuffer@onvifmp@@@std@@$$FQAE@XZ 10015dbc f i libapi.obj
 0001:00014e20       ??$?0$$$V@?$_Ref_count_obj@VMediaStreamInfo@onvifmp@@@std@@$$FQAE@XZ 10015e20 f i libapi.obj
 0001:00014e84       ?_Decref@_Ref_count_base@std@@$$FQAEXXZ 10015e84 f i libapi.obj
 0001:00014ebc       ?Cleanup@Live555@player@odm@@$$FQ$AAMXXZ 10015ebc f i libapi.obj
 0001:00014f08       ?_Reset@?$_Func_class@XPAXH_NH@std@@$$FIAEXABV12@@Z 10015f08 f i libapi.obj
 0001:00014f50       ?_Tidy@?$_Func_class@XPAXH_NH@std@@$$FIAEXXZ 10015f50 f i libapi.obj
 0001:00014f84       ?<MarshalCopy>@?$allocator@V?$_Func_class@XPAXH_NH@std@@@std@@$$FSMXPAV12@0@Z 10015f84 f i libapi.obj
 0001:00014f84       ?_Destroy@?$_Ref_count_obj@VMediaStreamInfo@onvifmp@@@std@@$$FEAEXXZ 10015f84 f i libapi.obj
 0001:00014f84       ??3@$$FYAXPAX0@Z           10015f84 f i libapi.obj
 0001:00014f84       ?_Destroy@?$_Ref_count_obj@VVideoBuffer@onvifmp@@@std@@$$FEAEXXZ 10015f84 f i libapi.obj
 0001:00014f94       ??1Live555@player@odm@@$$FA$AAM@XZ 10015f94 f i libapi.obj
 0001:00014fb4       ?<Dispose>@Live555@player@odm@@$$FM$AAMX_N@Z 10015fb4 f i libapi.obj
 0001:00014fdc       ?<MarshalDestroy>@?$shared_ptr@VVideoBuffer@onvifmp@@@std@@$$FSMXPAV12@@Z 10015fdc f i libapi.obj
 0001:00014fdc       ??1?$shared_ptr@VVideoBuffer@onvifmp@@@std@@$$FQAE@XZ 10015fdc f i libapi.obj
 0001:00014fdc       ??1?$shared_ptr@VMediaStreamInfo@onvifmp@@@std@@$$FQAE@XZ 10015fdc f i libapi.obj
 0001:00014ff8       ??1?$_Func_class@XPAXH_NH@std@@$$FQAE@XZ 10015ff8 f i libapi.obj
 0001:0001500c       ?<Dispose>@Live555@player@odm@@$$FU$AAMXXZ 1001600c f i libapi.obj
 0001:00015028       ??$_Reset@VVideoBuffer@onvifmp@@@?$_Ptr_base@VVideoBuffer@onvifmp@@@std@@$$FQAEXABV01@@Z 10016028 f i libapi.obj
 0001:00015060       ??$_Do_alloc@V?$_Func_impl@U?$_Callable_obj@P6AXPAXH_NH@Z$0A@@std@@V?$allocator@V?$_Func_class@XPAXH_NH@std@@@2@XPAXH_NH@std@@AAP6AXPAXH_NH@ZV?$allocator@V?$_Func_class@XPAXH_NH@std@@@2@@?$_Func_class@XPAXH_NH@std@@$$FAAEXAAP6AXPAXH_NH@ZV?$allocator@V?$_Func_class@XPAXH_NH@std@@@1@@Z 10016060 f i libapi.obj
 0001:000150f8       ?<MarshalCopy>@?$function@$$A6AXPAXH_NH@Z@std@@$$FSMXPAV12@0@Z 100160f8 f i libapi.obj
 0001:00015140       ?<MarshalDestroy>@?$function@$$A6AXPAXH_NH@Z@std@@$$FSMXPAV12@@Z 10016140 f i libapi.obj
 0001:00015140       ??1?$function@$$A6AXPAXH_NH@Z@std@@$$FQAE@XZ 10016140 f i libapi.obj
 0001:00015184       ??$_Reset_alloc@AAP6AXPAXH_NH@ZV?$allocator@V?$_Func_class@XPAXH_NH@std@@@std@@@?$_Func_class@XPAXH_NH@std@@$$FIAEXAAP6AXPAXH_NH@ZV?$allocator@V?$_Func_class@XPAXH_NH@std@@@1@@Z 10016184 f i libapi.obj
 0001:0001519c       ?<MarshalCopy>@?$shared_ptr@VVideoBuffer@onvifmp@@@std@@$$FSMXPAV12@0@Z 1001619c f i libapi.obj
 0001:000151b8       ??$make_shared@VVideoBuffer@onvifmp@@$$$V@std@@$$FYA?AV?$shared_ptr@VVideoBuffer@onvifmp@@@0@XZ 100161b8 f i libapi.obj
 0001:0001525c       ??$make_shared@VMediaStreamInfo@onvifmp@@$$$V@std@@$$FYA?AV?$shared_ptr@VMediaStreamInfo@onvifmp@@@0@XZ 1001625c f i libapi.obj
 0001:00015300       ?Init@Live555@player@odm@@$$FQ$AAMXP$AAVVideoBuffer@23@P$AAUIMetadataReceiver@23@@Z 10016300 f i libapi.obj
 0001:00015618       ?Play@Live555@player@odm@@$$FQ$AAMXP$AAVMediaStreamInfo@23@P$AAUIPlaybackController@23@@Z 10016618 f i libapi.obj
 0001:00015918       ??0Live555@player@odm@@$$FQ$AAM@P$AAVVideoBuffer@12@P$AAUIMetadataReceiver@12@@Z 10016918 f i libapi.obj
 0001:000159e0       ??_Eerror_category@std@@$$FUAEPAXI@Z 100169e0 f i libapi.obj
 0001:00015a25       ??_Eerror_category@std@@UAEPAXI@Z 10016a25 f i libapi.obj
 0001:00015a25       __t2m@??_Eerror_category@std@@UAEPAXI@Z 10016a25 f i libapi.obj
 0001:00015a2c       ??_E_Generic_error_category@std@@$$FUAEPAXI@Z 10016a2c f i libapi.obj
 0001:00015a74       ??_E_Generic_error_category@std@@UAEPAXI@Z 10016a74 f i libapi.obj
 0001:00015a74       __t2m@??_E_Generic_error_category@std@@UAEPAXI@Z 10016a74 f i libapi.obj
 0001:00015a7c       ??_E_Iostream_error_category@std@@$$FUAEPAXI@Z 10016a7c f i libapi.obj
 0001:00015ac4       ??_E_Iostream_error_category@std@@UAEPAXI@Z 10016ac4 f i libapi.obj
 0001:00015ac4       __t2m@??_E_Iostream_error_category@std@@UAEPAXI@Z 10016ac4 f i libapi.obj
 0001:00015acc       ??_E_System_error_category@std@@$$FUAEPAXI@Z 10016acc f i libapi.obj
 0001:00015b14       ??_E_System_error_category@std@@UAEPAXI@Z 10016b14 f i libapi.obj
 0001:00015b14       __t2m@??_E_System_error_category@std@@UAEPAXI@Z 10016b14 f i libapi.obj
 0001:00015b1c       ??_E_Ref_count_base@std@@$$FUAEPAXI@Z 10016b1c f i libapi.obj
 0001:00015b62       __t2m@??_E_Ref_count_base@std@@UAEPAXI@Z 10016b62 f i libapi.obj
 0001:00015b62       ??_E_Ref_count_base@std@@UAEPAXI@Z 10016b62 f i libapi.obj
 0001:00015b68       ??_E?$_Func_base@XPAXH_NH@std@@$$FUAEPAXI@Z 10016b68 f i libapi.obj
 0001:00015bad       __t2m@??_E?$_Func_base@XPAXH_NH@std@@UAEPAXI@Z 10016bad f i libapi.obj
 0001:00015bad       ??_E?$_Func_base@XPAXH_NH@std@@UAEPAXI@Z 10016bad f i libapi.obj
 0001:00015bb3       __t2m@?_Destroy@?$_Ref_count_obj@VVideoBuffer@onvifmp@@@std@@EAEXXZ 10016bb3 f i libapi.obj
 0001:00015bb3       ?_Destroy@?$_Ref_count_obj@VVideoBuffer@onvifmp@@@std@@EAEXXZ 10016bb3 f i libapi.obj
 0001:00015bb9       __t2m@?_Delete_this@?$_Ref_count_obj@VVideoBuffer@onvifmp@@@std@@EAEXXZ 10016bb9 f i libapi.obj
 0001:00015bb9       ?_Delete_this@?$_Ref_count_obj@VVideoBuffer@onvifmp@@@std@@EAEXXZ 10016bb9 f i libapi.obj
 0001:00015bc0       ??_E?$_Ref_count_obj@VVideoBuffer@onvifmp@@@std@@$$FUAEPAXI@Z 10016bc0 f i libapi.obj
 0001:00015c08       ??1?$_Ref_count_obj@VMediaStreamInfo@onvifmp@@@std@@$$FUAE@XZ 10016c08 f i libapi.obj
 0001:00015c08       ??1_Ref_count_base@std@@$$FUAE@XZ 10016c08 f i libapi.obj
 0001:00015c08       ??1?$_Ref_count_obj@VVideoBuffer@onvifmp@@@std@@$$FUAE@XZ 10016c08 f i libapi.obj
 0001:00015c1c       __t2m@??_E?$_Ref_count_obj@VVideoBuffer@onvifmp@@@std@@UAEPAXI@Z 10016c1c f i libapi.obj
 0001:00015c1c       ??_E?$_Ref_count_obj@VVideoBuffer@onvifmp@@@std@@UAEPAXI@Z 10016c1c f i libapi.obj
 0001:00015c22       ?_Destroy@?$_Ref_count_obj@VMediaStreamInfo@onvifmp@@@std@@EAEXXZ 10016c22 f i libapi.obj
 0001:00015c22       __t2m@?_Destroy@?$_Ref_count_obj@VMediaStreamInfo@onvifmp@@@std@@EAEXXZ 10016c22 f i libapi.obj
 0001:00015c28       ?_Delete_this@?$_Ref_count_obj@VMediaStreamInfo@onvifmp@@@std@@$$FEAEXXZ 10016c28 f i libapi.obj
 0001:00015c28       ?_Delete_this@?$_Ref_count_obj@VVideoBuffer@onvifmp@@@std@@$$FEAEXXZ 10016c28 f i libapi.obj
 0001:00015c45       __t2m@?_Delete_this@?$_Ref_count_obj@VMediaStreamInfo@onvifmp@@@std@@EAEXXZ 10016c45 f i libapi.obj
 0001:00015c45       ?_Delete_this@?$_Ref_count_obj@VMediaStreamInfo@onvifmp@@@std@@EAEXXZ 10016c45 f i libapi.obj
 0001:00015c4c       ??_E?$_Ref_count_obj@VMediaStreamInfo@onvifmp@@@std@@$$FUAEPAXI@Z 10016c4c f i libapi.obj
 0001:00015c94       ??_E?$_Ref_count_obj@VMediaStreamInfo@onvifmp@@@std@@UAEPAXI@Z 10016c94 f i libapi.obj
 0001:00015c94       __t2m@??_E?$_Ref_count_obj@VMediaStreamInfo@onvifmp@@@std@@UAEPAXI@Z 10016c94 f i libapi.obj
 0001:00015c9c       ?Initialized@ProxyPlaybackController@player@odm@@$$FUAE_NPAVIPlaybackSession@onvifmp@@@Z 10016c9c f i libapi.obj
 0001:00015cb3       ?Initialized@ProxyPlaybackController@player@odm@@UAE_NPAVIPlaybackSession@onvifmp@@@Z 10016cb3 f i libapi.obj
 0001:00015cb3       __t2m@?Initialized@ProxyPlaybackController@player@odm@@UAE_NPAVIPlaybackSession@onvifmp@@@Z 10016cb3 f i libapi.obj
 0001:00015cbc       ?Shutdown@ProxyPlaybackController@player@odm@@$$FUAEXXZ 10016cbc f i libapi.obj
 0001:00015cd3       ?Shutdown@ProxyPlaybackController@player@odm@@UAEXXZ 10016cd3 f i libapi.obj
 0001:00015cd3       __t2m@?Shutdown@ProxyPlaybackController@player@odm@@UAEXXZ 10016cd3 f i libapi.obj
 0001:00015cdc       ?_Copy@?$_Func_impl@U?$_Callable_obj@P6AXPAXH_NH@Z$0A@@std@@V?$allocator@V?$_Func_class@XPAXH_NH@std@@@2@XPAXH_NH@std@@$$FUAEPAV?$_Func_base@XPAXH_NH@2@PAX@Z 10016cdc f i libapi.obj
 0001:00015cdc       ?_Move@?$_Func_impl@U?$_Callable_obj@P6AXPAXH_NH@Z$0A@@std@@V?$allocator@V?$_Func_class@XPAXH_NH@std@@@2@XPAXH_NH@std@@$$FUAEPAV?$_Func_base@XPAXH_NH@2@PAX@Z 10016cdc f i libapi.obj
 0001:00015d6c       ?_Copy@?$_Func_impl@U?$_Callable_obj@P6AXPAXH_NH@Z$0A@@std@@V?$allocator@V?$_Func_class@XPAXH_NH@std@@@2@XPAXH_NH@std@@UAEPAV?$_Func_base@XPAXH_NH@2@PAX@Z 10016d6c f i libapi.obj
 0001:00015d6c       __t2m@?_Copy@?$_Func_impl@U?$_Callable_obj@P6AXPAXH_NH@Z$0A@@std@@V?$allocator@V?$_Func_class@XPAXH_NH@std@@@2@XPAXH_NH@std@@UAEPAV?$_Func_base@XPAXH_NH@2@PAX@Z 10016d6c f i libapi.obj
 0001:00015d72       __t2m@?_Move@?$_Func_impl@U?$_Callable_obj@P6AXPAXH_NH@Z$0A@@std@@V?$allocator@V?$_Func_class@XPAXH_NH@std@@@2@XPAXH_NH@std@@UAEPAV?$_Func_base@XPAXH_NH@2@PAX@Z 10016d72 f i libapi.obj
 0001:00015d72       ?_Move@?$_Func_impl@U?$_Callable_obj@P6AXPAXH_NH@Z$0A@@std@@V?$allocator@V?$_Func_class@XPAXH_NH@std@@@2@XPAXH_NH@std@@UAEPAV?$_Func_base@XPAXH_NH@2@PAX@Z 10016d72 f i libapi.obj
 0001:00015d78       ?_Do_call@?$_Func_impl@U?$_Callable_obj@P6AXPAXH_NH@Z$0A@@std@@V?$allocator@V?$_Func_class@XPAXH_NH@std@@@2@XPAXH_NH@std@@$$FUAEX$$QAPAX$$QAH$$QA_N1@Z 10016d78 f i libapi.obj
 0001:00015d97       ?_Do_call@?$_Func_impl@U?$_Callable_obj@P6AXPAXH_NH@Z$0A@@std@@V?$allocator@V?$_Func_class@XPAXH_NH@std@@@2@XPAXH_NH@std@@UAEX$$QAPAX$$QAH$$QA_N1@Z 10016d97 f i libapi.obj
 0001:00015d97       __t2m@?_Do_call@?$_Func_impl@U?$_Callable_obj@P6AXPAXH_NH@Z$0A@@std@@V?$allocator@V?$_Func_class@XPAXH_NH@std@@@2@XPAXH_NH@std@@UAEX$$QAPAX$$QAH$$QA_N1@Z 10016d97 f i libapi.obj
 0001:00015da0       ?_Target_type@?$_Func_impl@U?$_Callable_obj@P6AXPAXH_NH@Z$0A@@std@@V?$allocator@V?$_Func_class@XPAXH_NH@std@@@2@XPAXH_NH@std@@$$FUBEABVtype_info@@XZ 10016da0 f i libapi.obj
 0001:00015db2       __t2m@?_Target_type@?$_Func_impl@U?$_Callable_obj@P6AXPAXH_NH@Z$0A@@std@@V?$allocator@V?$_Func_class@XPAXH_NH@std@@@2@XPAXH_NH@std@@UBEABVtype_info@@XZ 10016db2 f i libapi.obj
 0001:00015db2       ?_Target_type@?$_Func_impl@U?$_Callable_obj@P6AXPAXH_NH@Z$0A@@std@@V?$allocator@V?$_Func_class@XPAXH_NH@std@@@2@XPAXH_NH@std@@UBEABVtype_info@@XZ 10016db2 f i libapi.obj
 0001:00015db8       ?_Delete_this@?$_Func_impl@U?$_Callable_obj@P6AXPAXH_NH@Z$0A@@std@@V?$allocator@V?$_Func_class@XPAXH_NH@std@@@2@XPAXH_NH@std@@$$FEAEX_N@Z 10016db8 f i libapi.obj
 0001:00015ddc       ?_Delete_this@?$_Func_impl@U?$_Callable_obj@P6AXPAXH_NH@Z$0A@@std@@V?$allocator@V?$_Func_class@XPAXH_NH@std@@@2@XPAXH_NH@std@@EAEX_N@Z 10016ddc f i libapi.obj
 0001:00015ddc       __t2m@?_Delete_this@?$_Func_impl@U?$_Callable_obj@P6AXPAXH_NH@Z$0A@@std@@V?$allocator@V?$_Func_class@XPAXH_NH@std@@@2@XPAXH_NH@std@@EAEX_N@Z 10016ddc f i libapi.obj
 0001:00015de4       ??_E?$_Func_impl@U?$_Callable_obj@P6AXPAXH_NH@Z$0A@@std@@V?$allocator@V?$_Func_class@XPAXH_NH@std@@@2@XPAXH_NH@std@@$$FUAEPAXI@Z 10016de4 f i libapi.obj
 0001:00015e34       ??1?$_Func_impl@U?$_Callable_obj@P6AXPAXH_NH@Z$0A@@std@@V?$allocator@V?$_Func_class@XPAXH_NH@std@@@2@XPAXH_NH@std@@$$FUAE@XZ 10016e34 f i libapi.obj
 0001:00015e50       ??_E?$_Func_impl@U?$_Callable_obj@P6AXPAXH_NH@Z$0A@@std@@V?$allocator@V?$_Func_class@XPAXH_NH@std@@@2@XPAXH_NH@std@@UAEPAXI@Z 10016e50 f i libapi.obj
 0001:00015e50       __t2m@??_E?$_Func_impl@U?$_Callable_obj@P6AXPAXH_NH@Z$0A@@std@@V?$allocator@V?$_Func_class@XPAXH_NH@std@@@2@XPAXH_NH@std@@UAEPAXI@Z 10016e50 f i libapi.obj
 0001:00015e58       ?_Get@?$_Func_impl@U?$_Callable_obj@P6AXPAXH_NH@Z$0A@@std@@V?$allocator@V?$_Func_class@XPAXH_NH@std@@@2@XPAXH_NH@std@@$$FEBEPBXXZ 10016e58 f i libapi.obj
 0001:00015e68       __t2m@?_Get@?$_Func_impl@U?$_Callable_obj@P6AXPAXH_NH@Z$0A@@std@@V?$allocator@V?$_Func_class@XPAXH_NH@std@@@2@XPAXH_NH@std@@EBEPBXXZ 10016e68 f i libapi.obj
 0001:00015e68       ?_Get@?$_Func_impl@U?$_Callable_obj@P6AXPAXH_NH@Z$0A@@std@@V?$allocator@V?$_Func_class@XPAXH_NH@std@@@2@XPAXH_NH@std@@EBEPBXXZ 10016e68 f i libapi.obj
 0001:00015e70       ??_Etype_info@@UAEPAXI@Z   10016e70 f i msvcrt:ti_inst.obj
 0001:00015eba       __purecall                 10016eba f   msvcrt:MSVCR120.dll
 0001:00015f0c       __CRT_INIT@12              10016f0c f   msvcrt:crtdll.obj
 0001:00016103       __DllMainCRTStartup@12     10017103 f   msvcrt:crtdll.obj
 0001:00016259       ??_M@YGXPAXIHP6EX0@Z@Z     10017259 f   msvcrt:ehvecdtr.obj
 0001:000162c8       ?__ArrayUnwind@@YGXPAXIHP6EX0@Z@Z 100172c8 f   msvcrt:ehvecdtr.obj
 0001:00016326       ??3@$$FYAXPAX@Z            10017326 f   msvcrt:MSVCR120.dll
 0001:00016326       ??3@YAXPAX@Z               10017326 f   msvcrt:MSVCR120.dll
 0001:0001632c       ??1type_info@@UAE@XZ       1001732c f   msvcrt:MSVCR120.dll
 0001:00016332       ___CppXcptFilter           10017332 f   msvcrt:MSVCR120.dll
 0001:00016338       __amsg_exit                10017338 f   msvcrt:MSVCR120.dll
 0001:00016338       ?_amsg_exit@@$$J0YAXH@Z    10017338 f   msvcrt:MSVCR120.dll
 0001:00016340       __FindPESection            10017340 f   msvcrt:pesect.obj
 0001:00016390       __IsNonwritableInCurrentImage 10017390 f   msvcrt:pesect.obj
 0001:00016450       __ValidateImageBase        10017450 f   msvcrt:pesect.obj
 0001:00016481       ___atonexitinit            10017481 f   msvcrt:atonexit.obj
 0001:000164bd       __onexit                   100174bd f   msvcrt:atonexit.obj
 0001:00016566       _atexit                    10017566 f   msvcrt:atonexit.obj
 0001:0001657b       ?__security_init_cookie@@$$J0YAXXZ 1001757b f   msvcrt:gs_support.obj
 0001:0001657b       ___security_init_cookie    1001757b f   msvcrt:gs_support.obj
 0001:00016617       _DllMain@12                10017617 f   msvcrt:dllmain.obj
 0001:00016639       __RTC_Initialize           10017639 f   msvcrt:initsect.obj
 0001:00016659       __RTC_Terminate            10017659 f   msvcrt:initsect.obj
 0001:0001667a       __initterm                 1001767a f   msvcrt:MSVCR120.dll
 0001:00016680       __initterm_e               10017680 f   msvcrt:MSVCR120.dll
 0001:00016686       ___clean_type_info_names   10017686 f   msvcrt:tncleanup.obj
 0001:000166a0       __SEH_prolog4              100176a0 f   msvcrt:sehprolg4.obj
 0001:000166e5       __SEH_epilog4              100176e5 f   msvcrt:sehprolg4.obj
 0001:000166f9       __except_handler4          100176f9 f   msvcrt:chandler4gs.obj
 0001:0001671c       ?terminate@@$$FYAXXZ       1001771c f   msvcrt:MSVCR120.dll
 0001:0001671c       ?terminate@@YAXXZ          1001771c f   msvcrt:MSVCR120.dll
 0001:00016722       __lock                     10017722 f   msvcrt:MSVCR120.dll
 0001:00016728       __unlock                   10017728 f   msvcrt:MSVCR120.dll
 0001:0001672e       ___dllonexit               1001772e f   msvcrt:MSVCR120.dll
 0001:00016734       ___clean_type_info_names_internal 10017734 f   msvcrt:MSVCR120.dll
 0001:0001673a       @__security_check_cookie@4 1001773a f   msvcrt:secchk.obj
 0001:0001674a       __except_handler4_common   1001774a f   msvcrt:MSVCR120.dll
 0001:00016750       ___raise_securityfailure   10017750 f   msvcrt:gs_report.obj
 0001:0001678d       ___report_gsfailure        1001778d f   msvcrt:gs_report.obj
 0001:00016888       ___report_rangecheckfailure 10017888 f   msvcrt:gs_report.obj
 0001:00016894       ___report_securityfailure  10017894 f   msvcrt:gs_report.obj
 0001:00016964       __crt_debugger_hook        10017964 f   msvcrt:MSVCR120.dll
 0001:0001696a       ___crtUnhandledException   1001796a f   msvcrt:MSVCR120.dll
 0001:00016970       ___crtTerminateProcess     10017970 f   msvcrt:MSVCR120.dll
 0001:00016978       ?IsSafeForManagedCode@NativeDll@<CrtImplementationDetails>@@$$FSA_NXZ 10017978 f i msvcmrt:mstartup.obj
 0001:000169bc       ??0ModuleLoadException@<CrtImplementationDetails>@@$$FQ$AAM@P$AAVString@System@@@Z 100179bc f i msvcmrt:mstartup.obj
 0001:000169d0       ??0ModuleLoadException@<CrtImplementationDetails>@@$$FQ$AAM@P$AAVString@System@@P$AAVException@3@@Z 100179d0 f i msvcmrt:mstartup.obj
 0001:000169e8       ??0ModuleLoadException@<CrtImplementationDetails>@@$$FI$AAM@P$AAVSerializationInfo@Serialization@Runtime@System@@VStreamingContext@345@@Z 100179e8 f i msvcmrt:mstartup.obj
 0001:00016a00       ?get@NestedException@ModuleLoadExceptionHandlerException@<CrtImplementationDetails>@@$$FQ$AAMP$AAVException@System@@XZ 10017a00 f i msvcmrt:mstartup.obj
 0001:00016a14       ?set@NestedException@ModuleLoadExceptionHandlerException@<CrtImplementationDetails>@@$$FQ$AAMXP$AAVException@System@@@Z 10017a14 f i msvcmrt:mstartup.obj
 0001:00016a28       ?ToString@ModuleLoadExceptionHandlerException@<CrtImplementationDetails>@@$$FU$AAMP$AAVString@System@@XZ 10017a28 f i msvcmrt:mstartup.obj
 0001:00016acc       ?GetObjectData@ModuleLoadExceptionHandlerException@<CrtImplementationDetails>@@$$FU$AAMXP$AAVSerializationInfo@Serialization@Runtime@System@@VStreamingContext@456@@Z 10017acc f i msvcmrt:mstartup.obj
 0001:00016afc       ??0ModuleLoadExceptionHandlerException@<CrtImplementationDetails>@@$$FI$AAM@P$AAVSerializationInfo@Serialization@Runtime@System@@VStreamingContext@345@@Z 10017afc f i msvcmrt:mstartup.obj
 0001:00016b34       ?ThrowModuleLoadException@<CrtImplementationDetails>@@$$FYMXP$AAVString@System@@@Z 10017b34 f i msvcmrt:mstartup.obj
 0001:00016b48       ?ThrowModuleLoadException@<CrtImplementationDetails>@@$$FYMXP$AAVString@System@@P$AAVException@3@@Z 10017b48 f i msvcmrt:mstartup.obj
 0001:00016b60       ?AddHandler@ModuleUninitializer@<CrtImplementationDetails>@@$$FQ$AAMXP$AAVEventHandler@System@@@Z 10017b60 f i msvcmrt:mstartup.obj
 0001:00016bc0       ?SingletonDomainUnload@ModuleUninitializer@<CrtImplementationDetails>@@$$FA$AAMXP$AAVObject@System@@P$AAVEventArgs@4@@Z 10017bc0 f i msvcmrt:mstartup.obj
 0001:00016c64       ?RegisterModuleUninitializer@<CrtImplementationDetails>@@$$FYMXP$AAVEventHandler@System@@@Z 10017c64 f i msvcmrt:mstartup.obj
 0001:00016c7c       ?FromGUID@<CrtImplementationDetails>@@$$FYM?AVGuid@System@@ABU_GUID@@@Z 10017c7c f i msvcmrt:mstartup.obj
 0001:00016cc4       ?__get_default_appdomain@@$$FYAJPAPAUIUnknown@@@Z 10017cc4 f i msvcmrt:mstartup.obj
 0001:00016d48       ?__release_appdomain@@$$FYAXPAUIUnknown@@@Z 10017d48 f i msvcmrt:mstartup.obj
 0001:00016d64       ?GetDefaultDomain@<CrtImplementationDetails>@@$$FYMP$AAVAppDomain@System@@XZ 10017d64 f i msvcmrt:mstartup.obj
 0001:00016dc4       ?DoCallBackInDefaultDomain@<CrtImplementationDetails>@@$$FYAXP6GJPAX@Z0@Z 10017dc4 f i msvcmrt:mstartup.obj
 0001:00016e48       ?_getFiberPtrId@@YAPAXXZ   10017e48 f   msvcmrt:mstartup.obj
 0001:00016e48       ?_getFiberPtrId@@$$FYAPAXXZ 10017e48 f   msvcmrt:mstartup.obj
 0001:00016e54       ?DoNothing@DefaultDomain@<CrtImplementationDetails>@@$$FCGJPAX@Z 10017e54 f i msvcmrt:mstartup.obj
 0001:00016e74       ?HasPerProcess@DefaultDomain@<CrtImplementationDetails>@@$$FSA_NXZ 10017e74 f i msvcmrt:mstartup.obj
 0001:00016ec8       ?HasNative@DefaultDomain@<CrtImplementationDetails>@@$$FSA_NXZ 10017ec8 f i msvcmrt:mstartup.obj
 0001:00016f48       ?NeedsInitialization@DefaultDomain@<CrtImplementationDetails>@@$$FSA_NXZ 10017f48 f i msvcmrt:mstartup.obj
 0001:00016f84       ?NeedsUninitialization@DefaultDomain@<CrtImplementationDetails>@@$$FSA_NXZ 10017f84 f i msvcmrt:mstartup.obj
 0001:00016f98       ?Initialize@DefaultDomain@<CrtImplementationDetails>@@$$FSAXXZ 10017f98 f i msvcmrt:mstartup.obj
 0001:00016fb0       ?UninitializeAppDomain@LanguageSupport@<CrtImplementationDetails>@@$$FCAXXZ 10017fb0 f i msvcmrt:mstartup.obj
 0001:00016fc4       ?_UninitializeDefaultDomain@LanguageSupport@<CrtImplementationDetails>@@$$FCGJPAX@Z 10017fc4 f i msvcmrt:mstartup.obj
 0001:00017000       ?UninitializeDefaultDomain@LanguageSupport@<CrtImplementationDetails>@@$$FCAXXZ 10018000 f i msvcmrt:mstartup.obj
 0001:00017034       ?DomainUnload@LanguageSupport@<CrtImplementationDetails>@@$$FCMXP$AAVObject@System@@P$AAVEventArgs@4@@Z 10018034 f i msvcmrt:mstartup.obj
 0001:00017070       ??0?$gcroot@P$AAVString@System@@@@$$FQAE@XZ 10018070 f i msvcmrt:mstartup.obj
 0001:00017094       ??1?$gcroot@P$AAVString@System@@@@$$FQAE@XZ 10018094 f i msvcmrt:mstartup.obj
 0001:000170bc       ??4?$gcroot@P$AAVString@System@@@@$$FQAMAAU0@P$AAVString@System@@@Z 100180bc f i msvcmrt:mstartup.obj
 0001:000170e4       ??B?$gcroot@P$AAVString@System@@@@$$FQBMP$AAVString@System@@XZ 100180e4 f i msvcmrt:mstartup.obj
 0001:00017108       ??0ModuleLoadExceptionHandlerException@<CrtImplementationDetails>@@$$FQ$AAM@P$AAVString@System@@P$AAVException@3@1@Z 10018108 f i msvcmrt:mstartup.obj
 0001:00017124       ?ThrowNestedModuleLoadException@<CrtImplementationDetails>@@$$FYMXP$AAVException@System@@0@Z 10018124 f i msvcmrt:mstartup.obj
 0001:00017140       ??0ModuleUninitializer@<CrtImplementationDetails>@@$$FA$AAM@XZ 10018140 f i msvcmrt:mstartup.obj
 0001:00017178       ?InitializeVtables@LanguageSupport@<CrtImplementationDetails>@@$$FAAEXXZ 10018178 f i msvcmrt:mstartup.obj
 0001:000171ac       ?InitializeDefaultAppDomain@LanguageSupport@<CrtImplementationDetails>@@$$FAAEXXZ 100181ac f i msvcmrt:mstartup.obj
 0001:000171cc       ?InitializeNative@LanguageSupport@<CrtImplementationDetails>@@$$FAAEXXZ 100181cc f i msvcmrt:mstartup.obj
 0001:00017268       ?InitializePerProcess@LanguageSupport@<CrtImplementationDetails>@@$$FAAEXXZ 10018268 f i msvcmrt:mstartup.obj
 0001:000172a8       ?InitializePerAppDomain@LanguageSupport@<CrtImplementationDetails>@@$$FAAEXXZ 100182a8 f i msvcmrt:mstartup.obj
 0001:000172e4       ?InitializeUninitializer@LanguageSupport@<CrtImplementationDetails>@@$$FAAEXXZ 100182e4 f i msvcmrt:mstartup.obj
 0001:00017310       ?_Initialize@LanguageSupport@<CrtImplementationDetails>@@$$FAAEXXZ 10018310 f i msvcmrt:mstartup.obj
 0001:00017434       ?Cleanup@LanguageSupport@<CrtImplementationDetails>@@$$FAAMXP$AAVException@System@@@Z 10018434 f i msvcmrt:mstartup.obj
 0001:000174a8       ??0LanguageSupport@<CrtImplementationDetails>@@$$FQAE@XZ 100184a8 f i msvcmrt:mstartup.obj
 0001:000174c0       ??1LanguageSupport@<CrtImplementationDetails>@@$$FQAE@XZ 100184c0 f i msvcmrt:mstartup.obj
 0001:000174d4       ?Initialize@LanguageSupport@<CrtImplementationDetails>@@$$FQAEXXZ 100184d4 f i msvcmrt:mstartup.obj
 0001:00017590       ?.cctor@@$$FYMXXZ          10018590 f   msvcmrt:mstartup.obj
 0001:000175e0       ?.cctor@ModuleUninitializer@<CrtImplementationDetails>@@$$FCMXXZ 100185e0 f i msvcmrt:mstartup.obj
 0001:00017601       __t2m@?DoNothing@DefaultDomain@<CrtImplementationDetails>@@CGJPAX@Z 10018601 f i msvcmrt:mstartup.obj
 0001:00017601       ?DoNothing@DefaultDomain@<CrtImplementationDetails>@@CGJPAX@Z 10018601 f i msvcmrt:mstartup.obj
 0001:00017607       __t2m@?_UninitializeDefaultDomain@LanguageSupport@<CrtImplementationDetails>@@CGJPAX@Z 10018607 f i msvcmrt:mstartup.obj
 0001:00017607       ?_UninitializeDefaultDomain@LanguageSupport@<CrtImplementationDetails>@@CGJPAX@Z 10018607 f i msvcmrt:mstartup.obj
 0001:00017610       ?___CxxCallUnwindDtor@@$$J0YMXP6MXPAX@Z0@Z 10018610 f   msvcmrt:managdeh.obj
 0001:00017654       ?ArrayUnwindFilter@?A0x57cabd3d@@$$FYAHPAU_EXCEPTION_POINTERS@@@Z 10018654 f   msvcmrt:mehvecdtr.obj
 0001:00017674       ?__ArrayUnwind@@$$FYMXPAXIHP6MX0@Z@Z 10018674 f   msvcmrt:mehvecdtr.obj
 0001:000176c8       ??_M@$$FYMXPAXIHP6MX0@Z@Z  100186c8 f   msvcmrt:mehvecdtr.obj
 0001:00017724       ?_handle@AtExitLock@<CrtImplementationDetails>@@$$FCMP$AAVGCHandle@InteropServices@Runtime@System@@XZ 10018724 f i msvcmrt:msilexit.obj
 0001:00017754       ?_lock_Set@AtExitLock@<CrtImplementationDetails>@@$$FCMXP$AAVObject@System@@@Z 10018754 f i msvcmrt:msilexit.obj
 0001:000177a4       ?_lock_Get@AtExitLock@<CrtImplementationDetails>@@$$FCMP$AAVObject@System@@XZ 100187a4 f i msvcmrt:msilexit.obj
 0001:000177c8       ?_lock_Destruct@AtExitLock@<CrtImplementationDetails>@@$$FCAXXZ 100187c8 f i msvcmrt:msilexit.obj
 0001:000177f0       ?IsInitialized@AtExitLock@<CrtImplementationDetails>@@$$FSA_NXZ 100187f0 f i msvcmrt:msilexit.obj
 0001:0001780c       ?RemoveRef@AtExitLock@<CrtImplementationDetails>@@$$FSAXXZ 1001880c f i msvcmrt:msilexit.obj
 0001:00017834       ?__dealloc_global_lock@?A0xe62d03cb@@$$FYAXXZ 10018834 f   msvcmrt:msilexit.obj
 0001:00017848       ?_exit_callback@@$$J0YMXXZ 10018848 f   msvcmrt:msilexit.obj
 0001:000178ec       ?_app_exit_callback@@$$J0YMXXZ 100188ec f   msvcmrt:msilexit.obj
 0001:000179c4       ?_lock_Construct@AtExitLock@<CrtImplementationDetails>@@$$FCMXP$AAVObject@System@@@Z 100189c4 f i msvcmrt:msilexit.obj
 0001:000179e0       ?AddRef@AtExitLock@<CrtImplementationDetails>@@$$FSAXXZ 100189e0 f i msvcmrt:msilexit.obj
 0001:00017a10       ?__alloc_global_lock@?A0xe62d03cb@@$$FYA_NXZ 10018a10 f   msvcmrt:msilexit.obj
 0001:00017a28       ?_initatexit_m@@$$J0YMHXZ  10018a28 f   msvcmrt:msilexit.obj
 0001:00017a70       ?_initatexit_app_domain@@$$J0YMHXZ 10018a70 f   msvcmrt:msilexit.obj
 0001:00017ab4       ?_initterm_e@@$$FYMHPAP6AHXZ0@Z 10018ab4 f   msvcmrt:puremsilcode.obj
 0001:00017ae4       ?_initterm@@$$FYMXPAP6AXXZ0@Z 10018ae4 f   msvcmrt:puremsilcode.obj
 0001:00017b0c       ?Handle@ThisModule@<CrtImplementationDetails>@@$$FCM?AVModuleHandle@System@@XZ 10018b0c f i msvcmrt:puremsilcode.obj
 0001:00017b30       ??$ResolveMethod@$$A6MPBXXZ@ThisModule@<CrtImplementationDetails>@@$$FSMP6MPBXXZP6MPBXXZ@Z 10018b30 f i msvcmrt:puremsilcode.obj
 0001:00017b5c       ?_initterm_m@@$$FYMXPBQ6MPBXXZ0@Z 10018b5c f   msvcmrt:puremsilcode.obj
 0001:00017b88       _IsProcessorFeaturePresent@4 10018b88 f   kernel32:KERNEL32.dll
 0001:00017b8e       ??2@$$FYAPAXI@Z            10018b8e f   msvcrt:MSVCR120.dll
 0001:00017b8e       ??2@YAPAXI@Z               10018b8e f   msvcrt:MSVCR120.dll
 0001:00017b94       ?_Xbad_alloc@std@@$$FYAXXZ 10018b94 f   msvcprt:MSVCP120.dll
 0001:00017b94       ?_Xbad_alloc@std@@YAXXZ    10018b94 f   msvcprt:MSVCP120.dll
 0001:00017b9a       ?Sleep@@$$J14YGXK@Z        10018b9a f   kernel32:KERNEL32.dll
 0001:00017b9a       _Sleep@4                   10018b9a f   kernel32:KERNEL32.dll
 0001:00017ba0       ?__CxxQueryExceptionSize@@$$J0YAHXZ 10018ba0 f   msvcrt:MSVCR120.dll
 0001:00017ba0       ___CxxQueryExceptionSize   10018ba0 f   msvcrt:MSVCR120.dll
 0001:00017ba6       ___CxxExceptionFilter      10018ba6 f   msvcrt:MSVCR120.dll
 0001:00017ba6       ?__CxxExceptionFilter@@$$J0YAHPAX0H0@Z 10018ba6 f   msvcrt:MSVCR120.dll
 0001:00017bac       ___CxxRegisterExceptionObject 10018bac f   msvcrt:MSVCR120.dll
 0001:00017bac       ?__CxxRegisterExceptionObject@@$$J0YAHPAX0@Z 10018bac f   msvcrt:MSVCR120.dll
 0001:00017bb2       __CxxThrowException@8      10018bb2 f   msvcrt:MSVCR120.dll
 0001:00017bb2       ?_CxxThrowException@@$$J18YGXPAXPBU_s__ThrowInfo@@@Z 10018bb2 f   msvcrt:MSVCR120.dll
 0001:00017bb8       ?__CxxDetectRethrow@@$$J0YAHPAX@Z 10018bb8 f   msvcrt:MSVCR120.dll
 0001:00017bb8       ___CxxDetectRethrow        10018bb8 f   msvcrt:MSVCR120.dll
 0001:00017bbe       ___CxxUnregisterExceptionObject 10018bbe f   msvcrt:MSVCR120.dll
 0001:00017bbe       ?__CxxUnregisterExceptionObject@@$$J0YAXPAXH@Z 10018bbe f   msvcrt:MSVCR120.dll
 0001:00017bc4       ??_V@$$FYAXPAX@Z           10018bc4 f   msvcrt:MSVCR120.dll
 0001:00017bc4       ??_V@YAXPAX@Z              10018bc4 f   msvcrt:MSVCR120.dll
 0001:00017bca       __cexit                    10018bca f   msvcrt:MSVCR120.dll
 0001:00017bca       ?_cexit@@$$J0YAXXZ         10018bca f   msvcrt:MSVCR120.dll
 0001:00017bd0       ___FrameUnwindFilter       10018bd0 f   msvcrt:MSVCR120.dll
 0001:00017bd0       ?__FrameUnwindFilter@@$$J0YAHPAU_EXCEPTION_POINTERS@@@Z 10018bd0 f   msvcrt:MSVCR120.dll
 0001:00017bd6       ??_L@YGXPAXIHP6EX0@Z1@Z    10018bd6 f   msvcrt:ehvecctr.obj
 0001:00017c38       __EH_epilog3               10018c38 f   msvcrt:ehprolg3.obj
 0001:00017c4c       __EH_epilog3_GS            10018c4c f   msvcrt:ehprolg3.obj
 0001:00017c5b       __EH_prolog3               10018c5b f   msvcrt:ehprolg3.obj
 0001:00017c8e       __EH_prolog3_GS            10018c8e f   msvcrt:ehprolg3.obj
 0001:00017cc4       __EH_prolog3_catch         10018cc4 f   msvcrt:ehprolg3.obj
 0001:00017cfa       ___CxxFrameHandler3        10018cfa f   msvcrt:MSVCR120.dll
 0001:00017d00       __alldiv                   10018d00 f   msvcrt:lldiv.obj
 0001:00017db0       __alldvrm                  10018db0 f   msvcrt:lldvrm.obj
 0001:00017e90       __allmul                   10018e90 f   msvcrt:llmul.obj
 0001:00017ed0       __allrem                   10018ed0 f   msvcrt:llrem.obj
 0001:00017fa0       __ftoui3                   10018fa0 f   msvcrt:ftol3.obj
 0001:00017faf       __ftoul3                   10018faf f   msvcrt:ftol3.obj
 0001:00017fbe       __ftol3                    10018fbe f   msvcrt:ftol3.obj
 0001:00017fcb       __ftol3_NaN                10018fcb f   msvcrt:ftol3.obj
 0001:00017fe3       __ftol3_work               10018fe3 f   msvcrt:ftol3.obj
 0001:00018069       __ftol3_common             10019069 f   msvcrt:ftol3.obj
 0001:0001812b       __ftol3_arg_error          1001912b f   msvcrt:ftol3.obj
 0001:0001813d       __ftol3_except             1001913d f   msvcrt:ftol3.obj
 0001:0001817f       __dtoui3                   1001917f f   msvcrt:ftol3.obj
 0001:0001818e       __dtoul3                   1001918e f   msvcrt:ftol3.obj
 0001:0001819d       __dtol3                    1001919d f   msvcrt:ftol3.obj
 0001:000181aa       __dtol3_NaN                100191aa f   msvcrt:ftol3.obj
 0001:000181c7       __dtol3_work               100191c7 f   msvcrt:ftol3.obj
 0001:000182ac       __ultod3                   100192ac f   msvcrt:ftol3.obj
 0001:0001833d       __ltod3                    1001933d f   msvcrt:ftol3.obj
 0001:0001836c       _memcmp                    1001936c f   msvcrt:MSVCR120.dll
 0001:00018372       _memcpy                    10019372 f   msvcrt:MSVCR120.dll
 0001:00018378       _memset                    10019378 f   msvcrt:MSVCR120.dll
 0001:0001837e       __except1                  1001937e f   msvcrt:MSVCR120.dll
 0001:00018384       __CorDllMain@12            10019384 f   mscoree:mscoree.dll
 0002:00000000       __imp__Sleep@4             1001b000     kernel32:KERNEL32.dll
 0002:00000004       __imp__QueryPerformanceFrequency@4 1001b004     kernel32:KERNEL32.dll
 0002:00000008       __imp__IsProcessorFeaturePresent@4 1001b008     kernel32:KERNEL32.dll
 0002:0000000c       __imp__IsDebuggerPresent@0 1001b00c     kernel32:KERNEL32.dll
 0002:00000010       __imp__DisableThreadLibraryCalls@4 1001b010     kernel32:KERNEL32.dll
 0002:00000014       __imp__GetSystemTimeAsFileTime@4 1001b014     kernel32:KERNEL32.dll
 0002:00000018       __imp__GetCurrentThreadId@0 1001b018     kernel32:KERNEL32.dll
 0002:0000001c       __imp__GetCurrentProcessId@0 1001b01c     kernel32:KERNEL32.dll
 0002:00000020       __imp__QueryPerformanceCounter@4 1001b020     kernel32:KERNEL32.dll
 0002:00000024       __imp__DecodePointer@4     1001b024     kernel32:KERNEL32.dll
 0002:00000028       __imp__EncodePointer@4     1001b028     kernel32:KERNEL32.dll
 0002:0000002c       \177KERNEL32_NULL_THUNK_DATA 1001b02c     kernel32:KERNEL32.dll
 0002:00000030       __imp_?_Syserror_map@std@@YAPBDH@Z 1001b030     msvcprt:MSVCP120.dll
 0002:00000034       __imp_?_Xbad_function_call@std@@YAXXZ 1001b034     msvcprt:MSVCP120.dll
 0002:00000038       __imp_?_Xlength_error@std@@YAXPBD@Z 1001b038     msvcprt:MSVCP120.dll
 0002:0000003c       __imp_?_Xout_of_range@std@@YAXPBD@Z 1001b03c     msvcprt:MSVCP120.dll
 0002:00000040       __imp_?_Xbad_alloc@std@@YAXXZ 1001b040     msvcprt:MSVCP120.dll
 0002:00000044       __imp_?_Winerror_map@std@@YAPBDH@Z 1001b044     msvcprt:MSVCP120.dll
 0002:00000048       \177MSVCP120_NULL_THUNK_DATA 1001b048     msvcprt:MSVCP120.dll
 0002:0000004c       __imp____crtUnhandledException 1001b04c     msvcrt:MSVCR120.dll
 0002:00000050       __imp____crtTerminateProcess 1001b050     msvcrt:MSVCR120.dll
 0002:00000054       __imp_?terminate@@YAXXZ    1001b054     msvcrt:MSVCR120.dll
 0002:00000058       __imp___initterm_e         1001b058     msvcrt:MSVCR120.dll
 0002:0000005c       __imp___initterm           1001b05c     msvcrt:MSVCR120.dll
 0002:00000060       __imp___malloc_crt         1001b060     msvcrt:MSVCR120.dll
 0002:00000064       __imp__free                1001b064     msvcrt:MSVCR120.dll
 0002:00000068       __imp___amsg_exit          1001b068     msvcrt:MSVCR120.dll
 0002:0000006c       __imp___crt_debugger_hook  1001b06c     msvcrt:MSVCR120.dll
 0002:00000070       __imp_??1type_info@@UAE@XZ 1001b070     msvcrt:MSVCR120.dll
 0002:00000074       __imp_??3@YAXPAX@Z         1001b074     msvcrt:MSVCR120.dll
 0002:00000078       __imp__memmove             1001b078     msvcrt:MSVCR120.dll
 0002:0000007c       __imp___purecall           1001b07c     msvcrt:MSVCR120.dll
 0002:00000080       __imp__sprintf             1001b080     msvcrt:MSVCR120.dll
 0002:00000084       __imp___ctime64            1001b084     msvcrt:MSVCR120.dll
 0002:00000088       __imp__strncmp             1001b088     msvcrt:MSVCR120.dll
 0002:0000008c       __imp___ftime64            1001b08c     msvcrt:MSVCR120.dll
 0002:00000090       __imp___except_handler4_common 1001b090     msvcrt:MSVCR120.dll
 0002:00000094       __imp___lock               1001b094     msvcrt:MSVCR120.dll
 0002:00000098       __imp____clean_type_info_names_internal 1001b098     msvcrt:MSVCR120.dll
 0002:0000009c       __imp___onexit             1001b09c     msvcrt:MSVCR120.dll
 0002:000000a0       __imp____dllonexit         1001b0a0     msvcrt:MSVCR120.dll
 0002:000000a4       __imp___calloc_crt         1001b0a4     msvcrt:MSVCR120.dll
 0002:000000a8       __imp___unlock             1001b0a8     msvcrt:MSVCR120.dll
 0002:000000ac       __imp____CppXcptFilter     1001b0ac     msvcrt:MSVCR120.dll
 0002:000000b0       __imp___except1            1001b0b0     msvcrt:MSVCR120.dll
 0002:000000b4       __imp__memset              1001b0b4     msvcrt:MSVCR120.dll
 0002:000000b8       __imp__memcpy              1001b0b8     msvcrt:MSVCR120.dll
 0002:000000bc       __imp__memcmp              1001b0bc     msvcrt:MSVCR120.dll
 0002:000000c0       __imp____CxxFrameHandler3  1001b0c0     msvcrt:MSVCR120.dll
 0002:000000c4       __imp__fputs               1001b0c4     msvcrt:MSVCR120.dll
 0002:000000c8       __imp__strerror            1001b0c8     msvcrt:MSVCR120.dll
 0002:000000cc       __imp__setlocale           1001b0cc     msvcrt:MSVCR120.dll
 0002:000000d0       __imp__abort               1001b0d0     msvcrt:MSVCR120.dll
 0002:000000d4       __imp___snprintf           1001b0d4     msvcrt:MSVCR120.dll
 0002:000000d8       __imp___strnicmp           1001b0d8     msvcrt:MSVCR120.dll
 0002:000000dc       __imp__perror              1001b0dc     msvcrt:MSVCR120.dll
 0002:000000e0       __imp__toupper             1001b0e0     msvcrt:MSVCR120.dll
 0002:000000e4       __imp__isdigit             1001b0e4     msvcrt:MSVCR120.dll
 0002:000000e8       __imp__tolower             1001b0e8     msvcrt:MSVCR120.dll
 0002:000000ec       __imp__sscanf              1001b0ec     msvcrt:MSVCR120.dll
 0002:000000f0       __imp__clock               1001b0f0     msvcrt:MSVCR120.dll
 0002:000000f4       __imp_??2@YAPAXI@Z         1001b0f4     msvcrt:MSVCR120.dll
 0002:000000f8       __imp____CxxQueryExceptionSize 1001b0f8     msvcrt:MSVCR120.dll
 0002:000000fc       __imp____CxxExceptionFilter 1001b0fc     msvcrt:MSVCR120.dll
 0002:00000100       __imp____CxxRegisterExceptionObject 1001b100     msvcrt:MSVCR120.dll
 0002:00000104       __imp___CxxThrowException@8 1001b104     msvcrt:MSVCR120.dll
 0002:00000108       __imp____CxxDetectRethrow  1001b108     msvcrt:MSVCR120.dll
 0002:0000010c       __imp____CxxUnregisterExceptionObject 1001b10c     msvcrt:MSVCR120.dll
 0002:00000110       __imp_??_V@YAXPAX@Z        1001b110     msvcrt:MSVCR120.dll
 0002:00000114       __imp___cexit              1001b114     msvcrt:MSVCR120.dll
 0002:00000118       __imp____FrameUnwindFilter 1001b118     msvcrt:MSVCR120.dll
 0002:0000011c       __imp__strncpy             1001b11c     msvcrt:MSVCR120.dll
 0002:00000120       __imp__malloc              1001b120     msvcrt:MSVCR120.dll
 0002:00000124       __imp___stricmp            1001b124     msvcrt:MSVCR120.dll
 0002:00000128       __imp_??_U@YAPAXI@Z        1001b128     msvcrt:MSVCR120.dll
 0002:0000012c       __imp__strstr              1001b12c     msvcrt:MSVCR120.dll
 0002:00000130       __imp____iob_func          1001b130     msvcrt:MSVCR120.dll
 0002:00000134       __imp__printf              1001b134     msvcrt:MSVCR120.dll
 0002:00000138       __imp__fprintf             1001b138     msvcrt:MSVCR120.dll
 0002:0000013c       \177MSVCR120_NULL_THUNK_DATA 1001b13c     msvcrt:MSVCR120.dll
 0002:00000140       __imp__closesocket@4       1001b140     ws2_32:WS2_32.dll
 0002:00000144       __imp__getsockopt@20       1001b144     ws2_32:WS2_32.dll
 0002:00000148       __imp__socket@12           1001b148     ws2_32:WS2_32.dll
 0002:0000014c       __imp__bind@12             1001b14c     ws2_32:WS2_32.dll
 0002:00000150       __imp__sendto@24           1001b150     ws2_32:WS2_32.dll
 0002:00000154       __imp__connect@12          1001b154     ws2_32:WS2_32.dll
 0002:00000158       __imp__send@16             1001b158     ws2_32:WS2_32.dll
 0002:0000015c       __imp____WSAFDIsSet@8      1001b15c     ws2_32:WS2_32.dll
 0002:00000160       __imp__WSAGetLastError@0   1001b160     ws2_32:WS2_32.dll
 0002:00000164       __imp__setsockopt@20       1001b164     ws2_32:WS2_32.dll
 0002:00000168       __imp__getsockname@12      1001b168     ws2_32:WS2_32.dll
 0002:0000016c       __imp__ntohs@4             1001b16c     ws2_32:WS2_32.dll
 0002:00000170       __imp__select@20           1001b170     ws2_32:WS2_32.dll
 0002:00000174       __imp__htonl@4             1001b174     ws2_32:WS2_32.dll
 0002:00000178       __imp__ntohl@4             1001b178     ws2_32:WS2_32.dll
 0002:0000017c       __imp__recvfrom@24         1001b17c     ws2_32:WS2_32.dll
 0002:00000180       __imp__htons@4             1001b180     ws2_32:WS2_32.dll
 0002:00000184       __imp__gethostbyname@4     1001b184     ws2_32:WS2_32.dll
 0002:00000188       __imp__WSAStartup@8        1001b188     ws2_32:WS2_32.dll
 0002:0000018c       __imp__inet_addr@4         1001b18c     ws2_32:WS2_32.dll
 0002:00000190       __imp__WSACleanup@0        1001b190     ws2_32:WS2_32.dll
 0002:00000194       __imp__ioctlsocket@12      1001b194     ws2_32:WS2_32.dll
 0002:00000198       __imp__gethostname@8       1001b198     ws2_32:WS2_32.dll
 0002:0000019c       \177WS2_32_NULL_THUNK_DATA 1001b19c     ws2_32:WS2_32.dll
 0002:000001a0       __imp__avcodec_register_all 1001b1a0     avcodec:avcodec-54.dll
 0002:000001a4       __imp__avcodec_alloc_frame 1001b1a4     avcodec:avcodec-54.dll
 0002:000001a8       __imp__avcodec_find_decoder 1001b1a8     avcodec:avcodec-54.dll
 0002:000001ac       __imp__avcodec_decode_video2 1001b1ac     avcodec:avcodec-54.dll
 0002:000001b0       __imp__avcodec_alloc_context 1001b1b0     avcodec:avcodec-54.dll
 0002:000001b4       __imp__avcodec_close       1001b1b4     avcodec:avcodec-54.dll
 0002:000001b8       __imp__avcodec_open        1001b1b8     avcodec:avcodec-54.dll
 0002:000001bc       \177avcodec-54_NULL_THUNK_DATA 1001b1bc     avcodec:avcodec-54.dll
 0002:000001c0       __imp__av_register_all     1001b1c0     avformat:avformat-54.dll
 0002:000001c4       \177avformat-54_NULL_THUNK_DATA 1001b1c4     avformat:avformat-54.dll
 0002:000001c8       __imp__av_free             1001b1c8     avutil:avutil-51.dll
 0002:000001cc       \177avutil-51_NULL_THUNK_DATA 1001b1cc     avutil:avutil-51.dll
 0002:000001d0       __imp___CorDllMain@12      1001b1d0     mscoree:mscoree.dll
 0002:000001d4       \177mscoree_NULL_THUNK_DATA 1001b1d4     mscoree:mscoree.dll
 0002:000001d8       __imp__sws_freeContext     1001b1d8     swscale:swscale-2.dll
 0002:000001dc       __imp__sws_scale           1001b1dc     swscale:swscale-2.dll
 0002:000001e0       __imp__sws_getContext      1001b1e0     swscale:swscale-2.dll
 0002:000001e4       \177swscale-2_NULL_THUNK_DATA 1001b1e4     swscale:swscale-2.dll
 0002:000001e8       ___xc_a                    1001b1e8     msvcrt:cinitexe.obj
 0002:0000024c       ___xc_z                    1001b24c     msvcrt:cinitexe.obj
 0002:00000250       ___xi_a                    1001b250     msvcrt:cinitexe.obj
 0002:0000025c       ___xi_z                    1001b25c     msvcrt:cinitexe.obj
 0002:000002a4       ??_7type_info@@6B@         1001b2a4     msvcrt:ti_inst.obj
 0002:000002a8       __pRawDllMain              1001b2a8     msvcrt:crtdll.obj
 0002:000002a8       __pDefaultRawDllMain       1001b2a8     msvcrt:crtdll.obj
 0002:000002b4       __GUID_90f1a06e_7712_4762_86b5_7a5eba6bdb02 1001b2b4     msvcmrt:mstartup.obj
 0002:000002c4       __GUID_90f1a06c_7712_4762_86b5_7a5eba6bdb02 1001b2c4     msvcmrt:mstartup.obj
 0002:000002d4       __GUID_cb2f6723_ab3a_11d2_9c40_00c04fa30a3e 1001b2d4     msvcmrt:mstartup.obj
 0002:000002e4       __GUID_cb2f6722_ab3a_11d2_9c40_00c04fa30a3e 1001b2e4     msvcmrt:mstartup.obj
 0002:000002f4       __unep@?DoNothing@DefaultDomain@<CrtImplementationDetails>@@$$FCGJPAX@Z 1001b2f4     msvcmrt:mstartup.obj
 0002:000002f8       __unep@?_UninitializeDefaultDomain@LanguageSupport@<CrtImplementationDetails>@@$$FCGJPAX@Z 1001b2f8     msvcmrt:mstartup.obj
 0002:00000344       ??_C@_07DCLBNMLN@generic?$AA@ 1001b344     live555:NetInterface.obj
 0002:0000034c       ??_C@_0O@BFJCFAAK@unknown?5error?$AA@ 1001b34c     live555:NetInterface.obj
 0002:0000035c       ??_C@_08LLGCOLLL@iostream?$AA@ 1001b35c     live555:NetInterface.obj
 0002:00000368       ??_C@_0BG@PADBLCHM@iostream?5stream?5error?$AA@ 1001b368     live555:NetInterface.obj
 0002:00000380       ??_C@_06FHFOAHML@system?$AA@ 1001b380     live555:NetInterface.obj
 0002:000003a0       ?DebugLevel@Socket@@2HA    1001b3a0     live555:NetInterface.obj
 0002:00001e68       ?responseBufferSize@RTSPClient@@2IA 1001ce68     live555:RTSPClient.obj
 0002:00003638       ?THE_END_OF_TIME@@3VEventTime@@B 1001e638     live555:DelayQueue.obj
 0002:00003648       ??_C@_0BA@JFNIOLAK@string?5too?5long?$AA@ 1001e648     live555:NetInterface.obj
 0002:00003658       ??_C@_0BI@CFPLBAOH@invalid?5string?5position?$AA@ 1001e658     live555:NetInterface.obj
 0002:00003674       ??_7Socket@@6B@            1001e674     live555:NetInterface.obj
 0002:00003680       ??_7Iterator@DirectedNetInterfaceSet@@6B@ 1001e680     live555:NetInterface.obj
 0002:00003688       ??_7NetInterface@@6B@      1001e688     live555:NetInterface.obj
 0002:00003690       ??_7DirectedNetInterfaceSet@@6B@ 1001e690     live555:NetInterface.obj
 0002:00003698       ??_7DelayQueueEntry@@6B@   1001e698     live555:DelayQueue.obj
 0002:000036a4       ??_7DelayQueue@@6B@        1001e6a4     live555:DelayQueue.obj
 0002:000036b0       ??_7Iterator@BasicHashTable@@6B@ 1001e6b0     live555:BasicHashTable.obj
 0002:000036bc       ??_7BasicHashTable@@6B@    1001e6bc     live555:BasicHashTable.obj
 0002:000036d4       ??_7HashTable@@6B@         1001e6d4     live555:HashTable.obj
 0002:000036ec       ??_7Iterator@HashTable@@6B@ 1001e6ec     live555:HashTable.obj
 0002:000036f8       ??_7NetAddressList@@6B@    1001e6f8     live555:NetAddress.obj
 0002:00003700       ??_7Iterator@AddressPortLookupTable@@6B@ 1001e700     live555:NetAddress.obj
 0002:00003708       ??_7AddressString@@6B@     1001e708     live555:NetAddress.obj
 0002:00003710       ??_7NetAddress@@6B@        1001e710     live555:NetAddress.obj
 0002:00003718       ??_7?$_Func_impl@U?$_Callable_obj@V<lambda_2f111f34529ba06998f18f1e2734b49b>@@$0A@@std@@V?$allocator@V?$_Func_class@V?$shared_ptr@VMetadataCollector@onvifmp@@@std@@PAVVirtualSink@onvifmp@@@std@@@2@V?$shared_ptr@VMetadataCollector@onvifmp@@@2@PAVVirtualSink@onvifmp@@@std@@6B@ 1001e718     odm-player:MetadataCollector.obj
 0002:00003738       ??_7?$_Func_base@V?$shared_ptr@VMetadataCollector@onvifmp@@@std@@PAVVirtualSink@onvifmp@@@std@@6B@ 1001e738     odm-player:MetadataCollector.obj
 0002:00003758       ??_7?$_Ref_count_obj@VMetadataCollector@onvifmp@@@std@@6B@ 1001e758     odm-player:MetadataCollector.obj
 0002:0000376c       ??_7MetadataCollector@onvifmp@@6B@ 1001e76c     odm-player:MetadataCollector.obj
 0002:00003778       ??_7Authenticator@@6B@     1001e778     live555:DigestAuthentication.obj
 0002:0000377c       ??_C@_0BE@ICGILMJD@invalid?5buffer?5size?$AA@ 1001e77c     odm-player:Live555.obj
 0002:00003790       ??_C@_0BN@GPAAEKJD@extradata?5exceeds?5size?5limit?$AA@ 1001e790     odm-player:Live555.obj
 0002:000037b0       ??_C@_0BE@NFEKDBBI@processed?5in?5?$CFldms?6?$AA@ 1001e7b0     odm-player:Live555.obj
 0002:000037c8       ??_7?$_Func_base@V?$shared_ptr@VIFrameProcessor@onvifmp@@@std@@PAVVirtualSink@onvifmp@@@std@@6B@ 1001e7c8     odm-player:Live555.obj
 0002:000037e8       ??_7?$_Ref_count_obj@VVideoRenderer@onvifmp@@@std@@6B@ 1001e7e8     odm-player:Live555.obj
 0002:000037fc       ??_7?$_Func_base@V?$shared_ptr@VIVideoRenderer@onvifmp@@@std@@PAVVideoDecoder@onvifmp@@@std@@6B@ 1001e7fc     odm-player:Live555.obj
 0002:0000381c       ??_7VirtualSink@onvifmp@@6B@ 1001e81c     odm-player:Live555.obj
 0002:00003858       ??_7PlaybackSession@?4??Run@Live555@onvifmp@@QAEXPAVMediaStreamInfo@3@PAVIPlaybackController@3@@Z@6B@ 1001e858     odm-player:Live555.obj
 0002:00003860       ??_7VideoRenderer@onvifmp@@6B@ 1001e860     odm-player:Live555.obj
 0002:0000386c       ??_7?$_Func_impl@U?$_Callable_obj@V<lambda_10aef3f9c20489329aef1d0346f46932>@@$0A@@std@@V?$allocator@V?$_Func_class@V?$shared_ptr@VIVideoRenderer@onvifmp@@@std@@PAVVideoDecoder@onvifmp@@@std@@@2@V?$shared_ptr@VIVideoRenderer@onvifmp@@@2@PAVVideoDecoder@onvifmp@@@std@@6B@ 1001e86c     odm-player:Live555.obj
 0002:0000388c       ??_7H264VirtualSink@onvifmp@@6B@ 1001e88c     odm-player:Live555.obj
 0002:000038c4       ?startCode4@?1??AfterGettingFrame@H264VirtualSink@onvifmp@@MAEXIIUtimeval@@I@Z@4QBEB 1001e8c4     odm-player:Live555.obj
 0002:000038c8       ?startCode@?1???0H264VirtualSink@onvifmp@@IAE@AAVUsageEnvironment@@I@Z@4QBEB 1001e8c8     odm-player:Live555.obj
 0002:000038d0       ??_7?$_Ref_count_obj@VVideoDecoder@onvifmp@@@std@@6B@ 1001e8d0     odm-player:Live555.obj
 0002:000038e4       ??_7?$_Func_impl@U?$_Callable_obj@V<lambda_02633da78dd085cd30a2d2935e5e427d>@@$0A@@std@@V?$allocator@V?$_Func_class@V?$shared_ptr@VIFrameProcessor@onvifmp@@@std@@PAVVirtualSink@onvifmp@@@std@@@2@V?$shared_ptr@VIFrameProcessor@onvifmp@@@2@PAVVirtualSink@onvifmp@@@std@@6B@ 1001e8e4     odm-player:Live555.obj
 0002:00003904       ??_7?$_Func_base@V?$shared_ptr@VVideoDecoder@onvifmp@@@std@@PAVVirtualSink@onvifmp@@@std@@6B@ 1001e904     odm-player:Live555.obj
 0002:00003920       ?startCode3@?1??AfterGettingFrame@H264VirtualSink@onvifmp@@MAEXIIUtimeval@@I@Z@4QBEB 1001e920     odm-player:Live555.obj
 0002:00003928       ??_7VideoDecoder@onvifmp@@6B@ 1001e928     odm-player:Live555.obj
 0002:00003934       ??_7?$_Func_impl@U?$_Callable_obj@V<lambda_6f17768ec1e816bdad31c3395b38e95e>@@$0A@@std@@V?$allocator@V?$_Func_class@V?$shared_ptr@VVideoDecoder@onvifmp@@@std@@PAVVirtualSink@onvifmp@@@std@@@2@V?$shared_ptr@VVideoDecoder@onvifmp@@@2@PAVVirtualSink@onvifmp@@@std@@6B@ 1001e934     odm-player:Live555.obj
 0002:00003954       ??_7?$_Func_impl@U?$_Callable_obj@V<lambda_de1d15fe10d4d9865796d6851c4d8d4d>@@$0A@@std@@V?$allocator@V?$_Func_class@V?$shared_ptr@VIFrameProcessor@onvifmp@@@std@@PAVVirtualSink@onvifmp@@@std@@@2@V?$shared_ptr@VIFrameProcessor@onvifmp@@@2@PAVVirtualSink@onvifmp@@@std@@6B@ 1001e954     odm-player:Live555.obj
 0002:00003974       ??_7MediaSubsessionIterator@@6B@ 1001e974     live555:MediaSession.obj
 0002:0000397c       ??_7MediaSession@@6B@      1001e97c     live555:MediaSession.obj
 0002:000039a8       ??_7MediaSubsession@@6B@   1001e9a8     live555:MediaSession.obj
 0002:000039b4       ??_7FramedSource@@6B@      1001e9b4     live555:FramedSource.obj
 0002:00003a10       ??_7BasicUsageEnvironment@@6B@ 1001ea10     live555:BasicUsageEnvironment.obj
 0002:00003a50       ??_7MediaSink@@6B@         1001ea50     live555:MediaSink.obj
 0002:00003a88       ??_7BasicTaskScheduler@@6B@ 1001ea88     live555:BasicTaskScheduler.obj
 0002:00003abc       ??_7RequestQueue@RTSPClient@@6B@ 1001eabc     live555:RTSPClient.obj
 0002:00003ac4       ??_7RTSPClient@@6B@        1001eac4     live555:RTSPClient.obj
 0002:00003af0       ??_7RequestRecord@RTSPClient@@6B@ 1001eaf0     live555:RTSPClient.obj
 0002:00003af8       ??_7UsageEnvironment@@6B@  1001eaf8     live555:UsageEnvironment.obj
 0002:00003b38       ??_7TaskScheduler@@6B@     1001eb38     live555:UsageEnvironment.obj
 0002:00003b68       ??_7MediaLookupTable@@6B@  1001eb68     live555:Media.obj
 0002:00003b70       ??_7Medium@@6B@            1001eb70     live555:Media.obj
 0002:00003b98       ??_7_Tables@@6B@           1001eb98     live555:Media.obj
 0002:00003ba0       ??_7H264BufferedPacket@@6B@ 1001eba0     live555:H264VideoRTPSource.obj
 0002:00003bb4       ??_7H264VideoRTPSource@@6B@ 1001ebb4     live555:H264VideoRTPSource.obj
 0002:00003c20       ??_7H264BufferedPacketFactory@@6B@ 1001ec20     live555:H264VideoRTPSource.obj
 0002:00003c2c       ??_7H263plusVideoRTPSource@@6B@ 1001ec2c     live555:H263plusVideoRTPSource.obj
 0002:00003c98       ??_7RTPReceptionStats@@6B@ 1001ec98     live555:RTPSource.obj
 0002:00003ca0       ??_7RTPSource@@6B@         1001eca0     live555:RTPSource.obj
 0002:00003d04       ??_7Iterator@RTPReceptionStatsDB@@6B@ 1001ed04     live555:RTPSource.obj
 0002:00003d0c       ??_7RTPReceptionStatsDB@@6B@ 1001ed0c     live555:RTPSource.obj
 0002:00003d14       ??_7VorbisBufferedPacket@@6B@ 1001ed14     live555:VorbisAudioRTPSource.obj
 0002:00003d28       ??_7VorbisAudioRTPSource@@6B@ 1001ed28     live555:VorbisAudioRTPSource.obj
 0002:00003d94       ??_7VorbisBufferedPacketFactory@@6B@ 1001ed94     live555:VorbisAudioRTPSource.obj
 0002:00003da0       ??_7Locale@@6B@            1001eda0     live555:Locale.obj
 0002:00003da8       ??_7SimpleRTPSource@@6B@   1001eda8     live555:SimpleRTPSource.obj
 0002:00003e14       ??_7QCELPDeinterleaver@@6B@ 1001ee14     live555:QCELPAudioRTPSource.obj
 0002:00003e70       ??_7QCELPBufferedPacketFactory@@6B@ 1001ee70     live555:QCELPAudioRTPSource.obj
 0002:00003e7c       ??_7QCELPBufferedPacket@@6B@ 1001ee7c     live555:QCELPAudioRTPSource.obj
 0002:00003e90       ??_7RawQCELPRTPSource@@6B@ 1001ee90     live555:QCELPAudioRTPSource.obj
 0002:00003efc       ??_7QCELPDeinterleavingBuffer@@6B@ 1001eefc     live555:QCELPAudioRTPSource.obj
 0002:00003f04       ??_7FrameDescriptor@QCELPDeinterleavingBuffer@@6B@ 1001ef04     live555:QCELPAudioRTPSource.obj
 0002:00003f0c       ??_7H261VideoRTPSource@@6B@ 1001ef0c     live555:H261VideoRTPSource.obj
 0002:00003f78       ??_7LATMBufferedPacketFactory@@6B@ 1001ef78     live555:MPEG4LATMAudioRTPSource.obj
 0002:00003f84       ??_7LATMBufferedPacket@@6B@ 1001ef84     live555:MPEG4LATMAudioRTPSource.obj
 0002:00003f98       ??_7MPEG4LATMAudioRTPSource@@6B@ 1001ef98     live555:MPEG4LATMAudioRTPSource.obj
 0002:00004004       ??_7MP3FromADUSource@@6B@  1001f004     live555:MP3ADU.obj
 0002:00004060       ??_7BasicUDPSource@@6B@    1001f060     live555:BasicUDPSource.obj
 0002:000040bc       ??_7MPEG1or2VideoRTPSource@@6B@ 1001f0bc     live555:MPEG1or2VideoRTPSource.obj
 0002:00004128       ??_7AC3AudioRTPSource@@6B@ 1001f128     live555:AC3AudioRTPSource.obj
 0002:00004194       ??_7MP3ADUinterleaverBase@@6B@ 1001f194     live555:MP3ADUinterleaving.obj
 0002:000041f4       ??_7MP3ADUdeinterleaver@@6B@ 1001f1f4     live555:MP3ADUinterleaving.obj
 0002:00004254       ??_7DeinterleavingFrameDescriptor@@6B@ 1001f254     live555:MP3ADUinterleaving.obj
 0002:0000425c       ??_7DeinterleavingFrames@@6B@ 1001f25c     live555:MP3ADUinterleaving.obj
 0002:00004264       ??_7MPEG4ESVideoRTPSource@@6B@ 1001f264     live555:MPEG4ESVideoRTPSource.obj
 0002:000042d0       ??_7QTGenericBufferedPacketFactory@@6B@ 1001f2d0     live555:QuickTimeGenericRTPSource.obj
 0002:000042dc       ??_7QTGenericBufferedPacket@@6B@ 1001f2dc     live555:QuickTimeGenericRTPSource.obj
 0002:000042f0       ??_7QuickTimeGenericRTPSource@@6B@ 1001f2f0     live555:QuickTimeGenericRTPSource.obj
 0002:0000435c       ??_7MPEG2TransportStreamFramer@@6B@ 1001f35c     live555:MPEG2TransportStreamFramer.obj
 0002:000043b8       ??_7JPEGBufferedPacketFactory@@6B@ 1001f3b8     live555:JPEGVideoRTPSource.obj
 0002:000043c4       ??_7JPEGVideoRTPSource@@6B@ 1001f3c4     live555:JPEGVideoRTPSource.obj
 0002:00004430       ??_7JPEGBufferedPacket@@6B@ 1001f430     live555:JPEGVideoRTPSource.obj
 0002:00004444       ??_7MPEG1or2AudioRTPSource@@6B@ 1001f444     live555:MPEG1or2AudioRTPSource.obj
 0002:000044b0       ??_7MPEG4GenericBufferedPacket@@6B@ 1001f4b0     live555:MPEG4GenericRTPSource.obj
 0002:000044c4       ??_7MPEG4GenericBufferedPacketFactory@@6B@ 1001f4c4     live555:MPEG4GenericRTPSource.obj
 0002:000044d0       ??_7MPEG4GenericRTPSource@@6B@ 1001f4d0     live555:MPEG4GenericRTPSource.obj
 0002:0000453c       ??_7RTCPMemberDatabase@@6B@ 1001f53c     live555:RTCP.obj
 0002:00004544       ??_7RTCPInstance@@6B@      1001f544     live555:RTCP.obj
 0002:0000456c       ??_7VP8VideoRTPSource@@6B@ 1001f56c     live555:VP8VideoRTPSource.obj
 0002:000045d8       ??_7AMRBufferedPacket@@6B@ 1001f5d8     live555:AMRAudioRTPSource.obj
 0002:000045ec       ??_7FrameDescriptor@AMRDeinterleavingBuffer@@6B@ 1001f5ec     live555:AMRAudioRTPSource.obj
 0002:000045f4       ??_7AMRBufferedPacketFactory@@6B@ 1001f5f4     live555:AMRAudioRTPSource.obj
 0002:00004600       ??_7AMRDeinterleavingBuffer@@6B@ 1001f600     live555:AMRAudioRTPSource.obj
 0002:00004608       ??_7AMRDeinterleaver@@6B@  1001f608     live555:AMRAudioRTPSource.obj
 0002:00004664       ??_7RawAMRRTPSource@@6B@   1001f664     live555:AMRAudioRTPSource.obj
 0002:000046d0       ??_7destRecord@@6B@        1001f6d0     live555:Groupsock.obj
 0002:000046d8       ??_7Groupsock@@6B@         1001f6d8     live555:Groupsock.obj
 0002:000046e4       ??_7OutputSocket@@6B@      1001f6e4     live555:Groupsock.obj
 0002:000046f0       ??_7DVVideoRTPSource@@6B@  1001f6f0     live555:DVVideoRTPSource.obj
 0002:0000475c       ??_7ADUBufferedPacket@@6B@ 1001f75c     live555:MP3ADURTPSource.obj
 0002:00004770       ??_7ADUBufferedPacketFactory@@6B@ 1001f770     live555:MP3ADURTPSource.obj
 0002:0000477c       ??_7MP3ADURTPSource@@6B@   1001f77c     live555:MP3ADURTPSource.obj
 0002:000047e8       ??_7MediaSource@@6B@       1001f7e8     live555:MediaSource.obj
 0002:00004838       ??_7HandlerDescriptor@@6B@ 1001f838     live555:BasicTaskScheduler0.obj
 0002:00004840       ??_7HandlerSet@@6B@        1001f840     live555:BasicTaskScheduler0.obj
 0002:00004848       ??_7HandlerIterator@@6B@   1001f848     live555:BasicTaskScheduler0.obj
 0002:00004850       ??_7AlarmHandler@@6B@      1001f850     live555:BasicTaskScheduler0.obj
 0002:0000485c       ??_7BasicTaskScheduler0@@6B@ 1001f85c     live555:BasicTaskScheduler0.obj
 0002:00004890       ??_7SocketDescriptor@@6B@  1001f890     live555:RTPInterface.obj
 0002:00004898       ??_7tcpStreamRecord@@6B@   1001f898     live555:RTPInterface.obj
 0002:000048a0       ??_7RTPInterface@@6B@      1001f8a0     live555:RTPInterface.obj
 0002:000048a8       ??_7BufferedPacketFactory@@6B@ 1001f8a8     live555:MultiFramedRTPSource.obj
 0002:000048b4       ??_7MultiFramedRTPSource@@6B@ 1001f8b4     live555:MultiFramedRTPSource.obj
 0002:00004920       ??_7ReorderingPacketBuffer@@6B@ 1001f920     live555:MultiFramedRTPSource.obj
 0002:00004928       ??_7BufferedPacket@@6B@    1001f928     live555:MultiFramedRTPSource.obj
 0002:0000493c       ??_7FramedFilter@@6B@      1001f93c     live555:FramedFilter.obj
 0002:00004998       ??_7RTPTransmissionStats@@6B@ 1001f998     live555:RTPSink.obj
 0002:000049a0       __real@0000000000000000    1001f9a0     live555:NetInterface.obj
 0002:000049a8       __real@3e10000000000000    1001f9a8     live555:NetInterface.obj
 0002:000049b0       __real@3e50000000000000    1001f9b0     live555:NetInterface.obj
 0002:000049b8       __real@3ee74d3b7ba75828    1001f9b8     live555:NetInterface.obj
 0002:000049c0       __real@3f800000            1001f9c0     live555:NetInterface.obj
 0002:000049c8       __real@3fa999999999999a    1001f9c8     live555:NetInterface.obj
 0002:000049d0       __real@3fb0000000000000    1001f9d0     live555:NetInterface.obj
 0002:000049d8       __real@3fb999999999999a    1001f9d8     live555:NetInterface.obj
 0002:000049e0       __real@3fc0000000000000    1001f9e0     live555:NetInterface.obj
 0002:000049e8       __real@3fd0000000000000    1001f9e8     live555:NetInterface.obj
 0002:000049f0       __real@3fe0000000000000    1001f9f0     live555:NetInterface.obj
 0002:000049f8       __real@3fe8000000000000    1001f9f8     live555:NetInterface.obj
 0002:00004a00       __real@3fe999999999999a    1001fa00     live555:NetInterface.obj
 0002:00004a08       __real@3fee000000000000    1001fa08     live555:NetInterface.obj
 0002:00004a10       __real@3ff0000000000000    1001fa10     live555:NetInterface.obj
 0002:00004a18       __real@3ff37e132b55ef20    1001fa18     live555:NetInterface.obj
 0002:00004a20       __real@4000000000000000    1001fa20     live555:NetInterface.obj
 0002:00004a28       __real@4004000000000000    1001fa28     live555:NetInterface.obj
 0002:00004a30       __real@4014000000000000    1001fa30     live555:NetInterface.obj
 0002:00004a38       __real@4090000000000000    1001fa38     live555:NetInterface.obj
 0002:00004a40       __real@40ce848000000000    1001fa40     live555:NetInterface.obj
 0002:00004a48       __real@40e5f90000000000    1001fa48     live555:NetInterface.obj
 0002:00004a50       __real@412e848000000000    1001fa50     live555:NetInterface.obj
 0002:00004a58       __real@413e848000000000    1001fa58     live555:NetInterface.obj
 0002:00004a60       __real@4179bfcc00000000    1001fa60     live555:NetInterface.obj
 0002:00004a68       __real@4190000000000000    1001fa68     live555:NetInterface.obj
 0002:00004a70       __real@bff0000000000000    1001fa70     live555:NetInterface.obj
 0002:00004a80       __xmm@41f00000000000000000000000000000 1001fa80     live555:NetInterface.obj
 0002:00004a90       __xmm@80000000000000008000000000000000 1001fa90     live555:NetInterface.obj
 0002:00004b28       __load_config_used         1001fb28     msvcrt:loadcfg.obj
 0002:0000db08       ??_R1A@?0A@EA@IPlaybackController@onvifmp@@8 10028b08     libapi.obj
 0002:0000db24       ??_R2IPlaybackController@onvifmp@@8 10028b24     libapi.obj
 0002:0000db2c       ??_R3IPlaybackController@onvifmp@@8 10028b2c     libapi.obj
 0002:0000db3c       ??_R4IPlaybackController@onvifmp@@6B@ 10028b3c     libapi.obj
 0002:0000db50       ??_R1A@?0A@EA@?$_Func_base@XPAXH_NH@std@@8 10028b50     libapi.obj
 0002:0000db6c       ??_R2?$_Func_base@XPAXH_NH@std@@8 10028b6c     libapi.obj
 0002:0000db74       ??_R3?$_Func_base@XPAXH_NH@std@@8 10028b74     libapi.obj
 0002:0000db84       ??_R4?$_Func_base@XPAXH_NH@std@@6B@ 10028b84     libapi.obj
 0002:0000db98       ??_R1A@?0A@EA@?$_Ref_count_obj@VVideoBuffer@onvifmp@@@std@@8 10028b98     libapi.obj
 0002:0000dbb4       ??_R2?$_Ref_count_obj@VVideoBuffer@onvifmp@@@std@@8 10028bb4     libapi.obj
 0002:0000dbc0       ??_R3?$_Ref_count_obj@VVideoBuffer@onvifmp@@@std@@8 10028bc0     libapi.obj
 0002:0000dbd0       ??_R4?$_Ref_count_obj@VVideoBuffer@onvifmp@@@std@@6B@ 10028bd0     libapi.obj
 0002:0000dbe4       ??_R1A@?0A@EA@?$_Ref_count_obj@VMediaStreamInfo@onvifmp@@@std@@8 10028be4     libapi.obj
 0002:0000dc00       ??_R2?$_Ref_count_obj@VMediaStreamInfo@onvifmp@@@std@@8 10028c00     libapi.obj
 0002:0000dc0c       ??_R3?$_Ref_count_obj@VMediaStreamInfo@onvifmp@@@std@@8 10028c0c     libapi.obj
 0002:0000dc1c       ??_R4?$_Ref_count_obj@VMediaStreamInfo@onvifmp@@@std@@6B@ 10028c1c     libapi.obj
 0002:0000dc30       ??_R1A@?0A@EA@ProxyPlaybackController@player@odm@@8 10028c30     libapi.obj
 0002:0000dc4c       ??_R2ProxyPlaybackController@player@odm@@8 10028c4c     libapi.obj
 0002:0000dc58       ??_R3ProxyPlaybackController@player@odm@@8 10028c58     libapi.obj
 0002:0000dc68       ??_R4ProxyPlaybackController@player@odm@@6B@ 10028c68     libapi.obj
 0002:0000dc7c       ??_R1A@?0A@EA@?$_Func_impl@U?$_Callable_obj@P6AXPAXH_NH@Z$0A@@std@@V?$allocator@V?$_Func_class@XPAXH_NH@std@@@2@XPAXH_NH@std@@8 10028c7c     libapi.obj
 0002:0000dc98       ??_R2?$_Func_impl@U?$_Callable_obj@P6AXPAXH_NH@Z$0A@@std@@V?$allocator@V?$_Func_class@XPAXH_NH@std@@@2@XPAXH_NH@std@@8 10028c98     libapi.obj
 0002:0000dca4       ??_R3?$_Func_impl@U?$_Callable_obj@P6AXPAXH_NH@Z$0A@@std@@V?$allocator@V?$_Func_class@XPAXH_NH@std@@@2@XPAXH_NH@std@@8 10028ca4     libapi.obj
 0002:0000dcb4       ??_R4?$_Func_impl@U?$_Callable_obj@P6AXPAXH_NH@Z$0A@@std@@V?$allocator@V?$_Func_class@XPAXH_NH@std@@@2@XPAXH_NH@std@@6B@ 10028cb4     libapi.obj
 0002:0000dcc8       ??_R4type_info@@6B@        10028cc8     msvcrt:ti_inst.obj
 0002:0000dcdc       ??_R3type_info@@8          10028cdc     msvcrt:ti_inst.obj
 0002:0000dcec       ??_R2type_info@@8          10028cec     msvcrt:ti_inst.obj
 0002:0000dcf4       ??_R1A@?0A@EA@type_info@@8 10028cf4     msvcrt:ti_inst.obj
 0002:0000dd10       ??_R3error_category@std@@8 10028d10     live555:NetInterface.obj
 0002:0000dd20       ??_R2Iterator@DirectedNetInterfaceSet@@8 10028d20     live555:NetInterface.obj
 0002:0000dd28       ??_R1A@?0A@EA@error_category@std@@8 10028d28     live555:NetInterface.obj
 0002:0000dd44       ??_R3_System_error_category@std@@8 10028d44     live555:NetInterface.obj
 0002:0000dd54       ??_R1A@?0A@EA@NetInterface@@8 10028d54     live555:NetInterface.obj
 0002:0000dd70       ??_R2_System_error_category@std@@8 10028d70     live555:NetInterface.obj
 0002:0000dd80       ??_R3DirectedNetInterfaceSet@@8 10028d80     live555:NetInterface.obj
 0002:0000dd90       ??_R3Iterator@DirectedNetInterfaceSet@@8 10028d90     live555:NetInterface.obj
 0002:0000dda0       ??_R4_Generic_error_category@std@@6B@ 10028da0     live555:NetInterface.obj
 0002:0000ddb4       ??_R1A@?0A@EA@_Generic_error_category@std@@8 10028db4     live555:NetInterface.obj
 0002:0000ddd0       ??_R1A@?0A@EA@Iterator@DirectedNetInterfaceSet@@8 10028dd0     live555:NetInterface.obj
 0002:0000ddec       ??_R1A@?0A@EA@_Iostream_error_category@std@@8 10028dec     live555:NetInterface.obj
 0002:0000de08       ??_R1A@?0A@EA@DirectedNetInterfaceSet@@8 10028e08     live555:NetInterface.obj
 0002:0000de24       ??_R4error_category@std@@6B@ 10028e24     live555:NetInterface.obj
 0002:0000de38       ??_R4_Iostream_error_category@std@@6B@ 10028e38     live555:NetInterface.obj
 0002:0000de4c       ??_R4DirectedNetInterfaceSet@@6B@ 10028e4c     live555:NetInterface.obj
 0002:0000de60       ??_R2Socket@@8             10028e60     live555:NetInterface.obj
 0002:0000de6c       ??_R2NetInterface@@8       10028e6c     live555:NetInterface.obj
 0002:0000de74       ??_R2error_category@std@@8 10028e74     live555:NetInterface.obj
 0002:0000de7c       ??_R1A@?0A@EA@Socket@@8    10028e7c     live555:NetInterface.obj
 0002:0000de98       ??_R1A@?0A@EA@_System_error_category@std@@8 10028e98     live555:NetInterface.obj
 0002:0000deb4       ??_R3_Iostream_error_category@std@@8 10028eb4     live555:NetInterface.obj
 0002:0000dec4       ??_R3NetInterface@@8       10028ec4     live555:NetInterface.obj
 0002:0000ded4       ??_R4Socket@@6B@           10028ed4     live555:NetInterface.obj
 0002:0000dee8       ??_R2DirectedNetInterfaceSet@@8 10028ee8     live555:NetInterface.obj
 0002:0000def0       ??_R4NetInterface@@6B@     10028ef0     live555:NetInterface.obj
 0002:0000df04       ??_R4_System_error_category@std@@6B@ 10028f04     live555:NetInterface.obj
 0002:0000df18       ??_R2_Generic_error_category@std@@8 10028f18     live555:NetInterface.obj
 0002:0000df24       ??_R4Iterator@DirectedNetInterfaceSet@@6B@ 10028f24     live555:NetInterface.obj
 0002:0000df38       ??_R3Socket@@8             10028f38     live555:NetInterface.obj
 0002:0000df48       ??_R3_Generic_error_category@std@@8 10028f48     live555:NetInterface.obj
 0002:0000df58       ??_R2_Iostream_error_category@std@@8 10028f58     live555:NetInterface.obj
 0002:0000df68       ??_R1A@?0A@EA@DelayQueue@@8 10028f68     live555:DelayQueue.obj
 0002:0000df84       ??_R2DelayQueue@@8         10028f84     live555:DelayQueue.obj
 0002:0000df90       ??_R4DelayQueue@@6B@       10028f90     live555:DelayQueue.obj
 0002:0000dfa4       ??_R2DelayQueueEntry@@8    10028fa4     live555:DelayQueue.obj
 0002:0000dfac       ??_R3DelayQueue@@8         10028fac     live555:DelayQueue.obj
 0002:0000dfbc       ??_R1A@?0A@EA@DelayQueueEntry@@8 10028fbc     live555:DelayQueue.obj
 0002:0000dfd8       ??_R4DelayQueueEntry@@6B@  10028fd8     live555:DelayQueue.obj
 0002:0000dfec       ??_R3DelayQueueEntry@@8    10028fec     live555:DelayQueue.obj
 0002:0000dffc       ??_R1A@?0A@EA@HashTable@@8 10028ffc     live555:BasicHashTable.obj
 0002:0000e018       ??_R3Iterator@BasicHashTable@@8 10029018     live555:BasicHashTable.obj
 0002:0000e028       ??_R2Iterator@HashTable@@8 10029028     live555:BasicHashTable.obj
 0002:0000e030       ??_R2BasicHashTable@@8     10029030     live555:BasicHashTable.obj
 0002:0000e03c       ??_R3HashTable@@8          1002903c     live555:BasicHashTable.obj
 0002:0000e04c       ??_R2Iterator@BasicHashTable@@8 1002904c     live555:BasicHashTable.obj
 0002:0000e058       ??_R3Iterator@HashTable@@8 10029058     live555:BasicHashTable.obj
 0002:0000e068       ??_R3BasicHashTable@@8     10029068     live555:BasicHashTable.obj
 0002:0000e078       ??_R1A@?0A@EA@Iterator@BasicHashTable@@8 10029078     live555:BasicHashTable.obj
 0002:0000e094       ??_R1A@?0A@EA@BasicHashTable@@8 10029094     live555:BasicHashTable.obj
 0002:0000e0b0       ??_R4Iterator@BasicHashTable@@6B@ 100290b0     live555:BasicHashTable.obj
 0002:0000e0c4       ??_R2HashTable@@8          100290c4     live555:BasicHashTable.obj
 0002:0000e0cc       ??_R1A@?0A@EA@Iterator@HashTable@@8 100290cc     live555:BasicHashTable.obj
 0002:0000e0e8       ??_R4BasicHashTable@@6B@   100290e8     live555:BasicHashTable.obj
 0002:0000e0fc       ??_R4HashTable@@6B@        100290fc     live555:HashTable.obj
 0002:0000e110       ??_R4Iterator@HashTable@@6B@ 10029110     live555:HashTable.obj
 0002:0000e124       ??_R1A@?0A@EA@NetAddress@@8 10029124     live555:NetAddress.obj
 0002:0000e140       ??_R2Iterator@AddressPortLookupTable@@8 10029140     live555:NetAddress.obj
 0002:0000e148       ??_R2NetAddress@@8         10029148     live555:NetAddress.obj
 0002:0000e150       ??_R3NetAddressList@@8     10029150     live555:NetAddress.obj
 0002:0000e160       ??_R4NetAddressList@@6B@   10029160     live555:NetAddress.obj
 0002:0000e174       ??_R4AddressString@@6B@    10029174     live555:NetAddress.obj
 0002:0000e188       ??_R1A@?0A@EA@NetAddressList@@8 10029188     live555:NetAddress.obj
 0002:0000e1a4       ??_R3Iterator@AddressPortLookupTable@@8 100291a4     live555:NetAddress.obj
 0002:0000e1b4       ??_R1A@?0A@EA@Iterator@AddressPortLookupTable@@8 100291b4     live555:NetAddress.obj
 0002:0000e1d0       ??_R3AddressString@@8      100291d0     live555:NetAddress.obj
 0002:0000e1e0       ??_R2NetAddressList@@8     100291e0     live555:NetAddress.obj
 0002:0000e1e8       ??_R4Iterator@AddressPortLookupTable@@6B@ 100291e8     live555:NetAddress.obj
 0002:0000e1fc       ??_R1A@?0A@EA@AddressString@@8 100291fc     live555:NetAddress.obj
 0002:0000e218       ??_R4NetAddress@@6B@       10029218     live555:NetAddress.obj
 0002:0000e22c       ??_R2AddressString@@8      1002922c     live555:NetAddress.obj
 0002:0000e234       ??_R3NetAddress@@8         10029234     live555:NetAddress.obj
 0002:0000e244       ??_R2MetadataCollector@onvifmp@@8 10029244     odm-player:MetadataCollector.obj
 0002:0000e258       ??_R3?$_Func_impl@U?$_Callable_obj@V<lambda_2f111f34529ba06998f18f1e2734b49b>@@$0A@@std@@V?$allocator@V?$_Func_class@V?$shared_ptr@VMetadataCollector@onvifmp@@@std@@PAVVirtualSink@onvifmp@@@std@@@2@V?$shared_ptr@VMetadataCollector@onvifmp@@@2@PAVVirtualSink@onvifmp@@@std@@8 10029258     odm-player:MetadataCollector.obj
 0002:0000e268       ??_R1A@?0A@EA@ILive555Unit@onvifmp@@8 10029268     odm-player:MetadataCollector.obj
 0002:0000e284       ??_R2IDisposable@onvifmp@@8 10029284     odm-player:MetadataCollector.obj
 0002:0000e28c       ??_R1A@?0A@EA@IDisposable@onvifmp@@8 1002928c     odm-player:MetadataCollector.obj
 0002:0000e2a8       ??_R1A@?0A@EA@?$_Func_base@V?$shared_ptr@VMetadataCollector@onvifmp@@@std@@PAVVirtualSink@onvifmp@@@std@@8 100292a8     odm-player:MetadataCollector.obj
 0002:0000e2c4       ??_R2ILive555Unit@onvifmp@@8 100292c4     odm-player:MetadataCollector.obj
 0002:0000e2d0       ??_R2?$_Ref_count_obj@VMetadataCollector@onvifmp@@@std@@8 100292d0     odm-player:MetadataCollector.obj
 0002:0000e2dc       ??_R1A@?0A@EA@MetadataCollector@onvifmp@@8 100292dc     odm-player:MetadataCollector.obj
 0002:0000e2f8       ??_R1A@?0A@EA@?$_Ref_count_obj@VMetadataCollector@onvifmp@@@std@@8 100292f8     odm-player:MetadataCollector.obj
 0002:0000e314       ??_R3MetadataCollector@onvifmp@@8 10029314     odm-player:MetadataCollector.obj
 0002:0000e324       ??_R3IFrameProcessor@onvifmp@@8 10029324     odm-player:MetadataCollector.obj
 0002:0000e334       ??_R3IDisposable@onvifmp@@8 10029334     odm-player:MetadataCollector.obj
 0002:0000e344       ??_R4?$_Func_impl@U?$_Callable_obj@V<lambda_2f111f34529ba06998f18f1e2734b49b>@@$0A@@std@@V?$allocator@V?$_Func_class@V?$shared_ptr@VMetadataCollector@onvifmp@@@std@@PAVVirtualSink@onvifmp@@@std@@@2@V?$shared_ptr@VMetadataCollector@onvifmp@@@2@PAVVirtualSink@onvifmp@@@std@@6B@ 10029344     odm-player:MetadataCollector.obj
 0002:0000e358       ??_R4_Ref_count_base@std@@6B@ 10029358     odm-player:MetadataCollector.obj
 0002:0000e36c       ??_R2_Ref_count_base@std@@8 1002936c     odm-player:MetadataCollector.obj
 0002:0000e374       ??_R1A@?0A@EA@?$_Func_impl@U?$_Callable_obj@V<lambda_2f111f34529ba06998f18f1e2734b49b>@@$0A@@std@@V?$allocator@V?$_Func_class@V?$shared_ptr@VMetadataCollector@onvifmp@@@std@@PAVVirtualSink@onvifmp@@@std@@@2@V?$shared_ptr@VMetadataCollector@onvifmp@@@2@PAVVirtualSink@onvifmp@@@std@@8 10029374     odm-player:MetadataCollector.obj
 0002:0000e390       ??_R3_Ref_count_base@std@@8 10029390     odm-player:MetadataCollector.obj
 0002:0000e3a0       ??_R3ILive555Unit@onvifmp@@8 100293a0     odm-player:MetadataCollector.obj
 0002:0000e3b0       ??_R4MetadataCollector@onvifmp@@6B@ 100293b0     odm-player:MetadataCollector.obj
 0002:0000e3c4       ??_R1A@?0A@EA@_Ref_count_base@std@@8 100293c4     odm-player:MetadataCollector.obj
 0002:0000e3e0       ??_R4?$_Ref_count_obj@VMetadataCollector@onvifmp@@@std@@6B@ 100293e0     odm-player:MetadataCollector.obj
 0002:0000e3f4       ??_R2IFrameProcessor@onvifmp@@8 100293f4     odm-player:MetadataCollector.obj
 0002:0000e404       ??_R2?$_Func_impl@U?$_Callable_obj@V<lambda_2f111f34529ba06998f18f1e2734b49b>@@$0A@@std@@V?$allocator@V?$_Func_class@V?$shared_ptr@VMetadataCollector@onvifmp@@@std@@PAVVirtualSink@onvifmp@@@std@@@2@V?$shared_ptr@VMetadataCollector@onvifmp@@@2@PAVVirtualSink@onvifmp@@@std@@8 10029404     odm-player:MetadataCollector.obj
 0002:0000e410       ??_R1A@?0A@EA@IFrameProcessor@onvifmp@@8 10029410     odm-player:MetadataCollector.obj
 0002:0000e42c       ??_R3?$_Ref_count_obj@VMetadataCollector@onvifmp@@@std@@8 1002942c     odm-player:MetadataCollector.obj
 0002:0000e43c       ??_R4?$_Func_base@V?$shared_ptr@VMetadataCollector@onvifmp@@@std@@PAVVirtualSink@onvifmp@@@std@@6B@ 1002943c     odm-player:MetadataCollector.obj
 0002:0000e450       ??_R2?$_Func_base@V?$shared_ptr@VMetadataCollector@onvifmp@@@std@@PAVVirtualSink@onvifmp@@@std@@8 10029450     odm-player:MetadataCollector.obj
 0002:0000e458       ??_R3?$_Func_base@V?$shared_ptr@VMetadataCollector@onvifmp@@@std@@PAVVirtualSink@onvifmp@@@std@@8 10029458     odm-player:MetadataCollector.obj
 0002:0000e468       ??_R3Authenticator@@8      10029468     live555:DigestAuthentication.obj
 0002:0000e478       ??_R1A@?0A@EA@Authenticator@@8 10029478     live555:DigestAuthentication.obj
 0002:0000e494       ??_R2Authenticator@@8      10029494     live555:DigestAuthentication.obj
 0002:0000e49c       ??_R4Authenticator@@6B@    1002949c     live555:DigestAuthentication.obj
 0002:0000e4b0       ??_R1A@?0A@EA@?$_Func_impl@U?$_Callable_obj@V<lambda_de1d15fe10d4d9865796d6851c4d8d4d>@@$0A@@std@@V?$allocator@V?$_Func_class@V?$shared_ptr@VIFrameProcessor@onvifmp@@@std@@PAVVirtualSink@onvifmp@@@std@@@2@V?$shared_ptr@VIFrameProcessor@onvifmp@@@2@PAVVirtualSink@onvifmp@@@std@@8 100294b0     odm-player:Live555.obj
 0002:0000e4cc       ??_R3H264VirtualSink@onvifmp@@8 100294cc     odm-player:Live555.obj
 0002:0000e4dc       ??_R2H264VirtualSink@onvifmp@@8 100294dc     odm-player:Live555.obj
 0002:0000e4f0       ??_R2?$_Func_base@V?$shared_ptr@VVideoDecoder@onvifmp@@@std@@PAVVirtualSink@onvifmp@@@std@@8 100294f0     odm-player:Live555.obj
 0002:0000e4f8       ??_R4VideoRenderer@onvifmp@@6B@ 100294f8     odm-player:Live555.obj
 0002:0000e50c       ??_R2?$_Func_base@V?$shared_ptr@VIFrameProcessor@onvifmp@@@std@@PAVVirtualSink@onvifmp@@@std@@8 1002950c     odm-player:Live555.obj
 0002:0000e514       ??_R1A@?0A@EA@?$_Ref_count_obj@VVideoDecoder@onvifmp@@@std@@8 10029514     odm-player:Live555.obj
 0002:0000e530       ??_R4PlaybackSession@?4??Run@Live555@onvifmp@@QAEXPAVMediaStreamInfo@3@PAVIPlaybackController@3@@Z@6B@ 10029530     odm-player:Live555.obj
 0002:0000e544       ??_R1A@?0A@EA@?$_Func_base@V?$shared_ptr@VIVideoRenderer@onvifmp@@@std@@PAVVideoDecoder@onvifmp@@@std@@8 10029544     odm-player:Live555.obj
 0002:0000e560       ??_R2?$_Func_base@V?$shared_ptr@VIVideoRenderer@onvifmp@@@std@@PAVVideoDecoder@onvifmp@@@std@@8 10029560     odm-player:Live555.obj
 0002:0000e568       ??_R1A@?0A@EA@?$_Func_impl@U?$_Callable_obj@V<lambda_02633da78dd085cd30a2d2935e5e427d>@@$0A@@std@@V?$allocator@V?$_Func_class@V?$shared_ptr@VIFrameProcessor@onvifmp@@@std@@PAVVirtualSink@onvifmp@@@std@@@2@V?$shared_ptr@VIFrameProcessor@onvifmp@@@2@PAVVirtualSink@onvifmp@@@std@@8 10029568     odm-player:Live555.obj
 0002:0000e584       ??_R1A@?0A@EA@?$_Func_impl@U?$_Callable_obj@V<lambda_6f17768ec1e816bdad31c3395b38e95e>@@$0A@@std@@V?$allocator@V?$_Func_class@V?$shared_ptr@VVideoDecoder@onvifmp@@@std@@PAVVirtualSink@onvifmp@@@std@@@2@V?$shared_ptr@VVideoDecoder@onvifmp@@@2@PAVVirtualSink@onvifmp@@@std@@8 10029584     odm-player:Live555.obj
 0002:0000e5a0       ??_R3?$_Func_impl@U?$_Callable_obj@V<lambda_02633da78dd085cd30a2d2935e5e427d>@@$0A@@std@@V?$allocator@V?$_Func_class@V?$shared_ptr@VIFrameProcessor@onvifmp@@@std@@PAVVirtualSink@onvifmp@@@std@@@2@V?$shared_ptr@VIFrameProcessor@onvifmp@@@2@PAVVirtualSink@onvifmp@@@std@@8 100295a0     odm-player:Live555.obj
 0002:0000e5b0       ??_R2?$_Func_impl@U?$_Callable_obj@V<lambda_6f17768ec1e816bdad31c3395b38e95e>@@$0A@@std@@V?$allocator@V?$_Func_class@V?$shared_ptr@VVideoDecoder@onvifmp@@@std@@PAVVirtualSink@onvifmp@@@std@@@2@V?$shared_ptr@VVideoDecoder@onvifmp@@@2@PAVVirtualSink@onvifmp@@@std@@8 100295b0     odm-player:Live555.obj
 0002:0000e5bc       ??_R3?$_Func_base@V?$shared_ptr@VIVideoRenderer@onvifmp@@@std@@PAVVideoDecoder@onvifmp@@@std@@8 100295bc     odm-player:Live555.obj
 0002:0000e5cc       ??_R2VideoDecoder@onvifmp@@8 100295cc     odm-player:Live555.obj
 0002:0000e5e0       ??_R1A@?0A@EA@Medium@@8    100295e0     odm-player:Live555.obj
 0002:0000e5fc       ??_R2?$_Ref_count_obj@VVideoDecoder@onvifmp@@@std@@8 100295fc     odm-player:Live555.obj
 0002:0000e608       ??_R3?$_Func_base@V?$shared_ptr@VVideoDecoder@onvifmp@@@std@@PAVVirtualSink@onvifmp@@@std@@8 10029608     odm-player:Live555.obj
 0002:0000e618       ??_R3?$_Func_impl@U?$_Callable_obj@V<lambda_de1d15fe10d4d9865796d6851c4d8d4d>@@$0A@@std@@V?$allocator@V?$_Func_class@V?$shared_ptr@VIFrameProcessor@onvifmp@@@std@@PAVVirtualSink@onvifmp@@@std@@@2@V?$shared_ptr@VIFrameProcessor@onvifmp@@@2@PAVVirtualSink@onvifmp@@@std@@8 10029618     odm-player:Live555.obj
 0002:0000e628       ??_R4VideoDecoder@onvifmp@@6B@ 10029628     odm-player:Live555.obj
 0002:0000e63c       ??_R4H264VirtualSink@onvifmp@@6B@ 1002963c     odm-player:Live555.obj
 0002:0000e650       ??_R2?$_Ref_count_obj@VVideoRenderer@onvifmp@@@std@@8 10029650     odm-player:Live555.obj
 0002:0000e65c       ??_R1A@?0A@EA@?$_Func_base@V?$shared_ptr@VVideoDecoder@onvifmp@@@std@@PAVVirtualSink@onvifmp@@@std@@8 1002965c     odm-player:Live555.obj
 0002:0000e678       ??_R2?$_Func_impl@U?$_Callable_obj@V<lambda_02633da78dd085cd30a2d2935e5e427d>@@$0A@@std@@V?$allocator@V?$_Func_class@V?$shared_ptr@VIFrameProcessor@onvifmp@@@std@@PAVVirtualSink@onvifmp@@@std@@@2@V?$shared_ptr@VIFrameProcessor@onvifmp@@@2@PAVVirtualSink@onvifmp@@@std@@8 10029678     odm-player:Live555.obj
 0002:0000e684       ??_R4?$_Func_base@V?$shared_ptr@VVideoDecoder@onvifmp@@@std@@PAVVirtualSink@onvifmp@@@std@@6B@ 10029684     odm-player:Live555.obj
 0002:0000e698       ??_R1A@?0A@EA@MediaSink@@8 10029698     odm-player:Live555.obj
 0002:0000e6b4       ??_R3Medium@@8             100296b4     odm-player:Live555.obj
 0002:0000e6c4       ??_R1A@?0A@EA@?$_Ref_count_obj@VVideoRenderer@onvifmp@@@std@@8 100296c4     odm-player:Live555.obj
 0002:0000e6e0       ??_R2IVideoRenderer@onvifmp@@8 100296e0     odm-player:Live555.obj
 0002:0000e6f0       ??_R4?$_Func_base@V?$shared_ptr@VIFrameProcessor@onvifmp@@@std@@PAVVirtualSink@onvifmp@@@std@@6B@ 100296f0     odm-player:Live555.obj
 0002:0000e704       ??_R2IPlaybackSession@onvifmp@@8 10029704     odm-player:Live555.obj
 0002:0000e710       ??_R2VirtualSink@onvifmp@@8 10029710     odm-player:Live555.obj
 0002:0000e720       ??_R4?$_Func_impl@U?$_Callable_obj@V<lambda_6f17768ec1e816bdad31c3395b38e95e>@@$0A@@std@@V?$allocator@V?$_Func_class@V?$shared_ptr@VVideoDecoder@onvifmp@@@std@@PAVVirtualSink@onvifmp@@@std@@@2@V?$shared_ptr@VVideoDecoder@onvifmp@@@2@PAVVirtualSink@onvifmp@@@std@@6B@ 10029720     odm-player:Live555.obj
 0002:0000e734       ??_R4VirtualSink@onvifmp@@6B@ 10029734     odm-player:Live555.obj
 0002:0000e748       ??_R3VideoDecoder@onvifmp@@8 10029748     odm-player:Live555.obj
 0002:0000e758       ??_R2PlaybackSession@?4??Run@Live555@onvifmp@@QAEXPAVMediaStreamInfo@3@PAVIPlaybackController@3@@Z@8 10029758     odm-player:Live555.obj
 0002:0000e768       ??_R3?$_Func_impl@U?$_Callable_obj@V<lambda_10aef3f9c20489329aef1d0346f46932>@@$0A@@std@@V?$allocator@V?$_Func_class@V?$shared_ptr@VIVideoRenderer@onvifmp@@@std@@PAVVideoDecoder@onvifmp@@@std@@@2@V?$shared_ptr@VIVideoRenderer@onvifmp@@@2@PAVVideoDecoder@onvifmp@@@std@@8 10029768     odm-player:Live555.obj
 0002:0000e778       ??_R1A@?0A@EA@VirtualSink@onvifmp@@8 10029778     odm-player:Live555.obj
 0002:0000e794       ??_R1A@?0A@EA@VideoDecoder@onvifmp@@8 10029794     odm-player:Live555.obj
 0002:0000e7b0       ??_R3IVideoRenderer@onvifmp@@8 100297b0     odm-player:Live555.obj
 0002:0000e7c0       ??_R3VideoRenderer@onvifmp@@8 100297c0     odm-player:Live555.obj
 0002:0000e7d0       ??_R2Medium@@8             100297d0     odm-player:Live555.obj
 0002:0000e7d8       ??_R3?$_Ref_count_obj@VVideoRenderer@onvifmp@@@std@@8 100297d8     odm-player:Live555.obj
 0002:0000e7e8       ??_R3?$_Func_base@V?$shared_ptr@VIFrameProcessor@onvifmp@@@std@@PAVVirtualSink@onvifmp@@@std@@8 100297e8     odm-player:Live555.obj
 0002:0000e7f8       ??_R4?$_Func_impl@U?$_Callable_obj@V<lambda_de1d15fe10d4d9865796d6851c4d8d4d>@@$0A@@std@@V?$allocator@V?$_Func_class@V?$shared_ptr@VIFrameProcessor@onvifmp@@@std@@PAVVirtualSink@onvifmp@@@std@@@2@V?$shared_ptr@VIFrameProcessor@onvifmp@@@2@PAVVirtualSink@onvifmp@@@std@@6B@ 100297f8     odm-player:Live555.obj
 0002:0000e80c       ??_R4?$_Ref_count_obj@VVideoDecoder@onvifmp@@@std@@6B@ 1002980c     odm-player:Live555.obj
 0002:0000e820       ??_R2VideoRenderer@onvifmp@@8 10029820     odm-player:Live555.obj
 0002:0000e834       ??_R3PlaybackSession@?4??Run@Live555@onvifmp@@QAEXPAVMediaStreamInfo@3@PAVIPlaybackController@3@@Z@8 10029834     odm-player:Live555.obj
 0002:0000e844       ??_R1A@?0A@EA@VideoRenderer@onvifmp@@8 10029844     odm-player:Live555.obj
 0002:0000e860       ??_R3VirtualSink@onvifmp@@8 10029860     odm-player:Live555.obj
 0002:0000e870       ??_R1A@?0A@EA@IPlaybackSession@onvifmp@@8 10029870     odm-player:Live555.obj
 0002:0000e88c       ??_R3IPlaybackSession@onvifmp@@8 1002988c     odm-player:Live555.obj
 0002:0000e89c       ??_R1A@?0A@EA@?$_Func_impl@U?$_Callable_obj@V<lambda_10aef3f9c20489329aef1d0346f46932>@@$0A@@std@@V?$allocator@V?$_Func_class@V?$shared_ptr@VIVideoRenderer@onvifmp@@@std@@PAVVideoDecoder@onvifmp@@@std@@@2@V?$shared_ptr@VIVideoRenderer@onvifmp@@@2@PAVVideoDecoder@onvifmp@@@std@@8 1002989c     odm-player:Live555.obj
 0002:0000e8b8       ??_R1A@?0A@EA@IVideoRenderer@onvifmp@@8 100298b8     odm-player:Live555.obj
 0002:0000e8d4       ??_R2MediaSink@@8          100298d4     odm-player:Live555.obj
 0002:0000e8e0       ??_R2?$_Func_impl@U?$_Callable_obj@V<lambda_de1d15fe10d4d9865796d6851c4d8d4d>@@$0A@@std@@V?$allocator@V?$_Func_class@V?$shared_ptr@VIFrameProcessor@onvifmp@@@std@@PAVVirtualSink@onvifmp@@@std@@@2@V?$shared_ptr@VIFrameProcessor@onvifmp@@@2@PAVVirtualSink@onvifmp@@@std@@8 100298e0     odm-player:Live555.obj
 0002:0000e8ec       ??_R1A@?0A@EA@H264VirtualSink@onvifmp@@8 100298ec     odm-player:Live555.obj
 0002:0000e908       ??_R4?$_Func_base@V?$shared_ptr@VIVideoRenderer@onvifmp@@@std@@PAVVideoDecoder@onvifmp@@@std@@6B@ 10029908     odm-player:Live555.obj
 0002:0000e91c       ??_R4?$_Ref_count_obj@VVideoRenderer@onvifmp@@@std@@6B@ 1002991c     odm-player:Live555.obj
 0002:0000e930       ??_R3?$_Func_impl@U?$_Callable_obj@V<lambda_6f17768ec1e816bdad31c3395b38e95e>@@$0A@@std@@V?$allocator@V?$_Func_class@V?$shared_ptr@VVideoDecoder@onvifmp@@@std@@PAVVirtualSink@onvifmp@@@std@@@2@V?$shared_ptr@VVideoDecoder@onvifmp@@@2@PAVVirtualSink@onvifmp@@@std@@8 10029930     odm-player:Live555.obj
 0002:0000e940       ??_R3?$_Ref_count_obj@VVideoDecoder@onvifmp@@@std@@8 10029940     odm-player:Live555.obj
 0002:0000e950       ??_R2?$_Func_impl@U?$_Callable_obj@V<lambda_10aef3f9c20489329aef1d0346f46932>@@$0A@@std@@V?$allocator@V?$_Func_class@V?$shared_ptr@VIVideoRenderer@onvifmp@@@std@@PAVVideoDecoder@onvifmp@@@std@@@2@V?$shared_ptr@VIVideoRenderer@onvifmp@@@2@PAVVideoDecoder@onvifmp@@@std@@8 10029950     odm-player:Live555.obj
 0002:0000e95c       ??_R4?$_Func_impl@U?$_Callable_obj@V<lambda_02633da78dd085cd30a2d2935e5e427d>@@$0A@@std@@V?$allocator@V?$_Func_class@V?$shared_ptr@VIFrameProcessor@onvifmp@@@std@@PAVVirtualSink@onvifmp@@@std@@@2@V?$shared_ptr@VIFrameProcessor@onvifmp@@@2@PAVVirtualSink@onvifmp@@@std@@6B@ 1002995c     odm-player:Live555.obj
 0002:0000e970       ??_R1A@?0A@EA@PlaybackSession@?4??Run@Live555@onvifmp@@QAEXPAVMediaStreamInfo@3@PAVIPlaybackController@3@@Z@8 10029970     odm-player:Live555.obj
 0002:0000e98c       ??_R3MediaSink@@8          1002998c     odm-player:Live555.obj
 0002:0000e99c       ??_R1A@?0A@EA@?$_Func_base@V?$shared_ptr@VIFrameProcessor@onvifmp@@@std@@PAVVirtualSink@onvifmp@@@std@@8 1002999c     odm-player:Live555.obj
 0002:0000e9b8       ??_R4?$_Func_impl@U?$_Callable_obj@V<lambda_10aef3f9c20489329aef1d0346f46932>@@$0A@@std@@V?$allocator@V?$_Func_class@V?$shared_ptr@VIVideoRenderer@onvifmp@@@std@@PAVVideoDecoder@onvifmp@@@std@@@2@V?$shared_ptr@VIVideoRenderer@onvifmp@@@2@PAVVideoDecoder@onvifmp@@@std@@6B@ 100299b8     odm-player:Live555.obj
 0002:0000e9cc       ??_R2MediaSubsession@@8    100299cc     live555:MediaSession.obj
 0002:0000e9d4       ??_R1A@?0A@EA@MediaSession@@8 100299d4     live555:MediaSession.obj
 0002:0000e9f0       ??_R4MediaSession@@6B@     100299f0     live555:MediaSession.obj
 0002:0000ea04       ??_R1A@?0A@EA@MediaSubsessionIterator@@8 10029a04     live555:MediaSession.obj
 0002:0000ea20       ??_R4MediaSubsessionIterator@@6B@ 10029a20     live555:MediaSession.obj
 0002:0000ea34       ??_R3MediaSession@@8       10029a34     live555:MediaSession.obj
 0002:0000ea44       ??_R1A@?0A@EA@MediaSubsession@@8 10029a44     live555:MediaSession.obj
 0002:0000ea60       ??_R3MediaSubsessionIterator@@8 10029a60     live555:MediaSession.obj
 0002:0000ea70       ??_R2MediaSubsessionIterator@@8 10029a70     live555:MediaSession.obj
 0002:0000ea78       ??_R3MediaSubsession@@8    10029a78     live555:MediaSession.obj
 0002:0000ea88       ??_R4MediaSubsession@@6B@  10029a88     live555:MediaSession.obj
 0002:0000ea9c       ??_R2MediaSession@@8       10029a9c     live555:MediaSession.obj
 0002:0000eaa8       ??_R1A@?0A@EA@FramedSource@@8 10029aa8     live555:FramedSource.obj
 0002:0000eac4       ??_R3MediaSource@@8        10029ac4     live555:FramedSource.obj
 0002:0000ead4       ??_R2MediaSource@@8        10029ad4     live555:FramedSource.obj
 0002:0000eae0       ??_R2FramedSource@@8       10029ae0     live555:FramedSource.obj
 0002:0000eaf0       ??_R1A@?0A@EA@MediaSource@@8 10029af0     live555:FramedSource.obj
 0002:0000eb0c       ??_R3FramedSource@@8       10029b0c     live555:FramedSource.obj
 0002:0000eb1c       ??_R4FramedSource@@6B@     10029b1c     live555:FramedSource.obj
 0002:0000eb30       ??_R1A@?0A@EA@UsageEnvironment@@8 10029b30     live555:BasicUsageEnvironment.obj
 0002:0000eb4c       ??_R1A@?0A@EA@BasicUsageEnvironment@@8 10029b4c     live555:BasicUsageEnvironment.obj
 0002:0000eb68       ??_R3UsageEnvironment@@8   10029b68     live555:BasicUsageEnvironment.obj
 0002:0000eb78       ??_R3BasicUsageEnvironment0@@8 10029b78     live555:BasicUsageEnvironment.obj
 0002:0000eb88       ??_R2BasicUsageEnvironment@@8 10029b88     live555:BasicUsageEnvironment.obj
 0002:0000eb98       ??_R2UsageEnvironment@@8   10029b98     live555:BasicUsageEnvironment.obj
 0002:0000eba0       ??_R1A@?0A@EA@BasicUsageEnvironment0@@8 10029ba0     live555:BasicUsageEnvironment.obj
 0002:0000ebbc       ??_R3BasicUsageEnvironment@@8 10029bbc     live555:BasicUsageEnvironment.obj
 0002:0000ebcc       ??_R2BasicUsageEnvironment0@@8 10029bcc     live555:BasicUsageEnvironment.obj
 0002:0000ebd8       ??_R4BasicUsageEnvironment@@6B@ 10029bd8     live555:BasicUsageEnvironment.obj
 0002:0000ebec       ??_R4MediaSink@@6B@        10029bec     live555:MediaSink.obj
 0002:0000ec00       ??_R3BasicTaskScheduler0@@8 10029c00     live555:BasicTaskScheduler.obj
 0002:0000ec10       ??_R1A@?0A@EA@TaskScheduler@@8 10029c10     live555:BasicTaskScheduler.obj
 0002:0000ec2c       ??_R3TaskScheduler@@8      10029c2c     live555:BasicTaskScheduler.obj
 0002:0000ec3c       ??_R1A@?0A@EA@BasicTaskScheduler@@8 10029c3c     live555:BasicTaskScheduler.obj
 0002:0000ec58       ??_R2BasicTaskScheduler@@8 10029c58     live555:BasicTaskScheduler.obj
 0002:0000ec68       ??_R3BasicTaskScheduler@@8 10029c68     live555:BasicTaskScheduler.obj
 0002:0000ec78       ??_R4BasicTaskScheduler@@6B@ 10029c78     live555:BasicTaskScheduler.obj
 0002:0000ec8c       ??_R2BasicTaskScheduler0@@8 10029c8c     live555:BasicTaskScheduler.obj
 0002:0000ec98       ??_R1A@?0A@EA@BasicTaskScheduler0@@8 10029c98     live555:BasicTaskScheduler.obj
 0002:0000ecb4       ??_R2TaskScheduler@@8      10029cb4     live555:BasicTaskScheduler.obj
 0002:0000ecbc       ??_R2RequestRecord@RTSPClient@@8 10029cbc     live555:RTSPClient.obj
 0002:0000ecc4       ??_R3RequestRecord@RTSPClient@@8 10029cc4     live555:RTSPClient.obj
 0002:0000ecd4       ??_R4RequestRecord@RTSPClient@@6B@ 10029cd4     live555:RTSPClient.obj
 0002:0000ece8       ??_R1A@?0A@EA@RequestQueue@RTSPClient@@8 10029ce8     live555:RTSPClient.obj
 0002:0000ed04       ??_R4RequestQueue@RTSPClient@@6B@ 10029d04     live555:RTSPClient.obj
 0002:0000ed18       ??_R2RTSPClient@@8         10029d18     live555:RTSPClient.obj
 0002:0000ed24       ??_R3RTSPClient@@8         10029d24     live555:RTSPClient.obj
 0002:0000ed34       ??_R4RTSPClient@@6B@       10029d34     live555:RTSPClient.obj
 0002:0000ed48       ??_R1A@?0A@EA@RequestRecord@RTSPClient@@8 10029d48     live555:RTSPClient.obj
 0002:0000ed64       ??_R1A@?0A@EA@RTSPClient@@8 10029d64     live555:RTSPClient.obj
 0002:0000ed80       ??_R3RequestQueue@RTSPClient@@8 10029d80     live555:RTSPClient.obj
 0002:0000ed90       ??_R2RequestQueue@RTSPClient@@8 10029d90     live555:RTSPClient.obj
 0002:0000ed98       ??_R4TaskScheduler@@6B@    10029d98     live555:UsageEnvironment.obj
 0002:0000edac       ??_R4UsageEnvironment@@6B@ 10029dac     live555:UsageEnvironment.obj
 0002:0000edc0       ??_R1A@?0A@EA@MediaLookupTable@@8 10029dc0     live555:Media.obj
 0002:0000eddc       ??_R4Medium@@6B@           10029ddc     live555:Media.obj
 0002:0000edf0       ??_R4MediaLookupTable@@6B@ 10029df0     live555:Media.obj
 0002:0000ee04       ??_R4_Tables@@6B@          10029e04     live555:Media.obj
 0002:0000ee18       ??_R3MediaLookupTable@@8   10029e18     live555:Media.obj
 0002:0000ee28       ??_R2MediaLookupTable@@8   10029e28     live555:Media.obj
 0002:0000ee30       ??_R3_Tables@@8            10029e30     live555:Media.obj
 0002:0000ee40       ??_R2_Tables@@8            10029e40     live555:Media.obj
 0002:0000ee48       ??_R1A@?0A@EA@_Tables@@8   10029e48     live555:Media.obj
 0002:0000ee64       ??_R2RTPSource@@8          10029e64     live555:H264VideoRTPSource.obj
 0002:0000ee78       ??_R3MultiFramedRTPSource@@8 10029e78     live555:H264VideoRTPSource.obj
 0002:0000ee88       ??_R1A@?0A@EA@H264BufferedPacket@@8 10029e88     live555:H264VideoRTPSource.obj
 0002:0000eea4       ??_R1A@?0A@EA@H264BufferedPacketFactory@@8 10029ea4     live555:H264VideoRTPSource.obj
 0002:0000eec0       ??_R1A@?0A@EA@BufferedPacket@@8 10029ec0     live555:H264VideoRTPSource.obj
 0002:0000eedc       ??_R1A@?0A@EA@BufferedPacketFactory@@8 10029edc     live555:H264VideoRTPSource.obj
 0002:0000eef8       ??_R1A@?0A@EA@MultiFramedRTPSource@@8 10029ef8     live555:H264VideoRTPSource.obj
 0002:0000ef14       ??_R1A@?0A@EA@H264VideoRTPSource@@8 10029f14     live555:H264VideoRTPSource.obj
 0002:0000ef30       ??_R4H264VideoRTPSource@@6B@ 10029f30     live555:H264VideoRTPSource.obj
 0002:0000ef44       ??_R4H264BufferedPacketFactory@@6B@ 10029f44     live555:H264VideoRTPSource.obj
 0002:0000ef58       ??_R3H264VideoRTPSource@@8 10029f58     live555:H264VideoRTPSource.obj
 0002:0000ef68       ??_R3RTPSource@@8          10029f68     live555:H264VideoRTPSource.obj
 0002:0000ef78       ??_R2BufferedPacketFactory@@8 10029f78     live555:H264VideoRTPSource.obj
 0002:0000ef80       ??_R1A@?0A@EA@RTPSource@@8 10029f80     live555:H264VideoRTPSource.obj
 0002:0000ef9c       ??_R2H264BufferedPacket@@8 10029f9c     live555:H264VideoRTPSource.obj
 0002:0000efa8       ??_R2BufferedPacket@@8     10029fa8     live555:H264VideoRTPSource.obj
 0002:0000efb0       ??_R3H264BufferedPacket@@8 10029fb0     live555:H264VideoRTPSource.obj
 0002:0000efc0       ??_R2H264BufferedPacketFactory@@8 10029fc0     live555:H264VideoRTPSource.obj
 0002:0000efcc       ??_R3H264BufferedPacketFactory@@8 10029fcc     live555:H264VideoRTPSource.obj
 0002:0000efdc       ??_R2H264VideoRTPSource@@8 10029fdc     live555:H264VideoRTPSource.obj
 0002:0000eff8       ??_R3BufferedPacket@@8     10029ff8     live555:H264VideoRTPSource.obj
 0002:0000f008       ??_R3BufferedPacketFactory@@8 1002a008     live555:H264VideoRTPSource.obj
 0002:0000f018       ??_R2MultiFramedRTPSource@@8 1002a018     live555:H264VideoRTPSource.obj
 0002:0000f030       ??_R4H264BufferedPacket@@6B@ 1002a030     live555:H264VideoRTPSource.obj
 0002:0000f044       ??_R1A@?0A@EA@H263plusVideoRTPSource@@8 1002a044     live555:H263plusVideoRTPSource.obj
 0002:0000f060       ??_R4H263plusVideoRTPSource@@6B@ 1002a060     live555:H263plusVideoRTPSource.obj
 0002:0000f074       ??_R2H263plusVideoRTPSource@@8 1002a074     live555:H263plusVideoRTPSource.obj
 0002:0000f090       ??_R3H263plusVideoRTPSource@@8 1002a090     live555:H263plusVideoRTPSource.obj
 0002:0000f0a0       ??_R3RTPReceptionStats@@8  1002a0a0     live555:RTPSource.obj
 0002:0000f0b0       ??_R1A@?0A@EA@Iterator@RTPReceptionStatsDB@@8 1002a0b0     live555:RTPSource.obj
 0002:0000f0cc       ??_R4RTPReceptionStatsDB@@6B@ 1002a0cc     live555:RTPSource.obj
 0002:0000f0e0       ??_R4RTPReceptionStats@@6B@ 1002a0e0     live555:RTPSource.obj
 0002:0000f0f4       ??_R4RTPSource@@6B@        1002a0f4     live555:RTPSource.obj
 0002:0000f108       ??_R1A@?0A@EA@RTPReceptionStatsDB@@8 1002a108     live555:RTPSource.obj
 0002:0000f124       ??_R2Iterator@RTPReceptionStatsDB@@8 1002a124     live555:RTPSource.obj
 0002:0000f12c       ??_R3Iterator@RTPReceptionStatsDB@@8 1002a12c     live555:RTPSource.obj
 0002:0000f13c       ??_R3RTPReceptionStatsDB@@8 1002a13c     live555:RTPSource.obj
 0002:0000f14c       ??_R1A@?0A@EA@RTPReceptionStats@@8 1002a14c     live555:RTPSource.obj
 0002:0000f168       ??_R2RTPReceptionStatsDB@@8 1002a168     live555:RTPSource.obj
 0002:0000f170       ??_R2RTPReceptionStats@@8  1002a170     live555:RTPSource.obj
 0002:0000f178       ??_R4Iterator@RTPReceptionStatsDB@@6B@ 1002a178     live555:RTPSource.obj
 0002:0000f18c       ??_R4VorbisBufferedPacket@@6B@ 1002a18c     live555:VorbisAudioRTPSource.obj
 0002:0000f1a0       ??_R1A@?0A@EA@VorbisBufferedPacket@@8 1002a1a0     live555:VorbisAudioRTPSource.obj
 0002:0000f1bc       ??_R2VorbisBufferedPacket@@8 1002a1bc     live555:VorbisAudioRTPSource.obj
 0002:0000f1c8       ??_R2VorbisBufferedPacketFactory@@8 1002a1c8     live555:VorbisAudioRTPSource.obj
 0002:0000f1d4       ??_R4VorbisAudioRTPSource@@6B@ 1002a1d4     live555:VorbisAudioRTPSource.obj
 0002:0000f1e8       ??_R4VorbisBufferedPacketFactory@@6B@ 1002a1e8     live555:VorbisAudioRTPSource.obj
 0002:0000f1fc       ??_R1A@?0A@EA@VorbisAudioRTPSource@@8 1002a1fc     live555:VorbisAudioRTPSource.obj
 0002:0000f218       ??_R1A@?0A@EA@VorbisBufferedPacketFactory@@8 1002a218     live555:VorbisAudioRTPSource.obj
 0002:0000f234       ??_R2VorbisAudioRTPSource@@8 1002a234     live555:VorbisAudioRTPSource.obj
 0002:0000f250       ??_R3VorbisAudioRTPSource@@8 1002a250     live555:VorbisAudioRTPSource.obj
 0002:0000f260       ??_R3VorbisBufferedPacketFactory@@8 1002a260     live555:VorbisAudioRTPSource.obj
 0002:0000f270       ??_R3VorbisBufferedPacket@@8 1002a270     live555:VorbisAudioRTPSource.obj
 0002:0000f280       ??_R2Locale@@8             1002a280     live555:Locale.obj
 0002:0000f288       ??_R1A@?0A@EA@Locale@@8    1002a288     live555:Locale.obj
 0002:0000f2a4       ??_R3Locale@@8             1002a2a4     live555:Locale.obj
 0002:0000f2b4       ??_R4Locale@@6B@           1002a2b4     live555:Locale.obj
 0002:0000f2c8       ??_R1A@?0A@EA@SimpleRTPSource@@8 1002a2c8     live555:SimpleRTPSource.obj
 0002:0000f2e4       ??_R2SimpleRTPSource@@8    1002a2e4     live555:SimpleRTPSource.obj
 0002:0000f300       ??_R4SimpleRTPSource@@6B@  1002a300     live555:SimpleRTPSource.obj
 0002:0000f314       ??_R3SimpleRTPSource@@8    1002a314     live555:SimpleRTPSource.obj
 0002:0000f324       ??_R2QCELPBufferedPacketFactory@@8 1002a324     live555:QCELPAudioRTPSource.obj
 0002:0000f330       ??_R3QCELPBufferedPacketFactory@@8 1002a330     live555:QCELPAudioRTPSource.obj
 0002:0000f340       ??_R1A@?0A@EA@QCELPBufferedPacket@@8 1002a340     live555:QCELPAudioRTPSource.obj
 0002:0000f35c       ??_R3QCELPDeinterleavingBuffer@@8 1002a35c     live555:QCELPAudioRTPSource.obj
 0002:0000f36c       ??_R3FrameDescriptor@QCELPDeinterleavingBuffer@@8 1002a36c     live555:QCELPAudioRTPSource.obj
 0002:0000f37c       ??_R3FramedFilter@@8       1002a37c     live555:QCELPAudioRTPSource.obj
 0002:0000f38c       ??_R1A@?0A@EA@QCELPDeinterleaver@@8 1002a38c     live555:QCELPAudioRTPSource.obj
 0002:0000f3a8       ??_R3QCELPBufferedPacket@@8 1002a3a8     live555:QCELPAudioRTPSource.obj
 0002:0000f3b8       ??_R2QCELPDeinterleaver@@8 1002a3b8     live555:QCELPAudioRTPSource.obj
 0002:0000f3d0       ??_R4QCELPBufferedPacket@@6B@ 1002a3d0     live555:QCELPAudioRTPSource.obj
 0002:0000f3e4       ??_R3RawQCELPRTPSource@@8  1002a3e4     live555:QCELPAudioRTPSource.obj
 0002:0000f3f4       ??_R2QCELPBufferedPacket@@8 1002a3f4     live555:QCELPAudioRTPSource.obj
 0002:0000f400       ??_R1A@?0A@EA@QCELPDeinterleavingBuffer@@8 1002a400     live555:QCELPAudioRTPSource.obj
 0002:0000f41c       ??_R2FrameDescriptor@QCELPDeinterleavingBuffer@@8 1002a41c     live555:QCELPAudioRTPSource.obj
 0002:0000f424       ??_R1A@?0A@EA@FramedFilter@@8 1002a424     live555:QCELPAudioRTPSource.obj
 0002:0000f440       ??_R4FrameDescriptor@QCELPDeinterleavingBuffer@@6B@ 1002a440     live555:QCELPAudioRTPSource.obj
 0002:0000f454       ??_R2FramedFilter@@8       1002a454     live555:QCELPAudioRTPSource.obj
 0002:0000f468       ??_R2QCELPDeinterleavingBuffer@@8 1002a468     live555:QCELPAudioRTPSource.obj
 0002:0000f470       ??_R4QCELPDeinterleaver@@6B@ 1002a470     live555:QCELPAudioRTPSource.obj
 0002:0000f484       ??_R1A@?0A@EA@QCELPBufferedPacketFactory@@8 1002a484     live555:QCELPAudioRTPSource.obj
 0002:0000f4a0       ??_R2RawQCELPRTPSource@@8  1002a4a0     live555:QCELPAudioRTPSource.obj
 0002:0000f4bc       ??_R1A@?0A@EA@RawQCELPRTPSource@@8 1002a4bc     live555:QCELPAudioRTPSource.obj
 0002:0000f4d8       ??_R3QCELPDeinterleaver@@8 1002a4d8     live555:QCELPAudioRTPSource.obj
 0002:0000f4e8       ??_R4RawQCELPRTPSource@@6B@ 1002a4e8     live555:QCELPAudioRTPSource.obj
 0002:0000f4fc       ??_R1A@?0A@EA@FrameDescriptor@QCELPDeinterleavingBuffer@@8 1002a4fc     live555:QCELPAudioRTPSource.obj
 0002:0000f518       ??_R4QCELPBufferedPacketFactory@@6B@ 1002a518     live555:QCELPAudioRTPSource.obj
 0002:0000f52c       ??_R4QCELPDeinterleavingBuffer@@6B@ 1002a52c     live555:QCELPAudioRTPSource.obj
 0002:0000f540       ??_R3H261VideoRTPSource@@8 1002a540     live555:H261VideoRTPSource.obj
 0002:0000f550       ??_R1A@?0A@EA@H261VideoRTPSource@@8 1002a550     live555:H261VideoRTPSource.obj
 0002:0000f56c       ??_R4H261VideoRTPSource@@6B@ 1002a56c     live555:H261VideoRTPSource.obj
 0002:0000f580       ??_R2H261VideoRTPSource@@8 1002a580     live555:H261VideoRTPSource.obj
 0002:0000f59c       ??_R2MPEG4LATMAudioRTPSource@@8 1002a59c     live555:MPEG4LATMAudioRTPSource.obj
 0002:0000f5b8       ??_R1A@?0A@EA@LATMBufferedPacketFactory@@8 1002a5b8     live555:MPEG4LATMAudioRTPSource.obj
 0002:0000f5d4       ??_R4MPEG4LATMAudioRTPSource@@6B@ 1002a5d4     live555:MPEG4LATMAudioRTPSource.obj
 0002:0000f5e8       ??_R1A@?0A@EA@MPEG4LATMAudioRTPSource@@8 1002a5e8     live555:MPEG4LATMAudioRTPSource.obj
 0002:0000f604       ??_R4LATMBufferedPacket@@6B@ 1002a604     live555:MPEG4LATMAudioRTPSource.obj
 0002:0000f618       ??_R3MPEG4LATMAudioRTPSource@@8 1002a618     live555:MPEG4LATMAudioRTPSource.obj
 0002:0000f628       ??_R2LATMBufferedPacketFactory@@8 1002a628     live555:MPEG4LATMAudioRTPSource.obj
 0002:0000f634       ??_R4LATMBufferedPacketFactory@@6B@ 1002a634     live555:MPEG4LATMAudioRTPSource.obj
 0002:0000f648       ??_R3LATMBufferedPacket@@8 1002a648     live555:MPEG4LATMAudioRTPSource.obj
 0002:0000f658       ??_R2LATMBufferedPacket@@8 1002a658     live555:MPEG4LATMAudioRTPSource.obj
 0002:0000f664       ??_R1A@?0A@EA@LATMBufferedPacket@@8 1002a664     live555:MPEG4LATMAudioRTPSource.obj
 0002:0000f680       ??_R3LATMBufferedPacketFactory@@8 1002a680     live555:MPEG4LATMAudioRTPSource.obj
 0002:0000f690       ??_R2MP3FromADUSource@@8   1002a690     live555:MP3ADU.obj
 0002:0000f6a8       ??_R4MP3FromADUSource@@6B@ 1002a6a8     live555:MP3ADU.obj
 0002:0000f6bc       ??_R1A@?0A@EA@MP3FromADUSource@@8 1002a6bc     live555:MP3ADU.obj
 0002:0000f6d8       ??_R3MP3FromADUSource@@8   1002a6d8     live555:MP3ADU.obj
 0002:0000f6e8       ??_R2BasicUDPSource@@8     1002a6e8     live555:BasicUDPSource.obj
 0002:0000f6fc       ??_R4BasicUDPSource@@6B@   1002a6fc     live555:BasicUDPSource.obj
 0002:0000f710       ??_R3BasicUDPSource@@8     1002a710     live555:BasicUDPSource.obj
 0002:0000f720       ??_R1A@?0A@EA@BasicUDPSource@@8 1002a720     live555:BasicUDPSource.obj
 0002:0000f73c       ??_R3MPEG1or2VideoRTPSource@@8 1002a73c     live555:MPEG1or2VideoRTPSource.obj
 0002:0000f74c       ??_R1A@?0A@EA@MPEG1or2VideoRTPSource@@8 1002a74c     live555:MPEG1or2VideoRTPSource.obj
 0002:0000f768       ??_R2MPEG1or2VideoRTPSource@@8 1002a768     live555:MPEG1or2VideoRTPSource.obj
 0002:0000f784       ??_R4MPEG1or2VideoRTPSource@@6B@ 1002a784     live555:MPEG1or2VideoRTPSource.obj
 0002:0000f798       ??_R1A@?0A@EA@AC3AudioRTPSource@@8 1002a798     live555:AC3AudioRTPSource.obj
 0002:0000f7b4       ??_R4AC3AudioRTPSource@@6B@ 1002a7b4     live555:AC3AudioRTPSource.obj
 0002:0000f7c8       ??_R2AC3AudioRTPSource@@8  1002a7c8     live555:AC3AudioRTPSource.obj
 0002:0000f7e4       ??_R3AC3AudioRTPSource@@8  1002a7e4     live555:AC3AudioRTPSource.obj
 0002:0000f7f4       ??_R4MP3ADUinterleaverBase@@6B@ 1002a7f4     live555:MP3ADUinterleaving.obj
 0002:0000f808       ??_R2DeinterleavingFrameDescriptor@@8 1002a808     live555:MP3ADUinterleaving.obj
 0002:0000f810       ??_R1A@?0A@EA@MP3ADUdeinterleaver@@8 1002a810     live555:MP3ADUinterleaving.obj
 0002:0000f82c       ??_R4DeinterleavingFrames@@6B@ 1002a82c     live555:MP3ADUinterleaving.obj
 0002:0000f840       ??_R3DeinterleavingFrameDescriptor@@8 1002a840     live555:MP3ADUinterleaving.obj
 0002:0000f850       ??_R4MP3ADUdeinterleaver@@6B@ 1002a850     live555:MP3ADUinterleaving.obj
 0002:0000f864       ??_R4DeinterleavingFrameDescriptor@@6B@ 1002a864     live555:MP3ADUinterleaving.obj
 0002:0000f878       ??_R1A@?0A@EA@MP3ADUinterleaverBase@@8 1002a878     live555:MP3ADUinterleaving.obj
 0002:0000f894       ??_R1A@?0A@EA@DeinterleavingFrames@@8 1002a894     live555:MP3ADUinterleaving.obj
 0002:0000f8b0       ??_R3DeinterleavingFrames@@8 1002a8b0     live555:MP3ADUinterleaving.obj
 0002:0000f8c0       ??_R3MP3ADUinterleaverBase@@8 1002a8c0     live555:MP3ADUinterleaving.obj
 0002:0000f8d0       ??_R2MP3ADUinterleaverBase@@8 1002a8d0     live555:MP3ADUinterleaving.obj
 0002:0000f8e8       ??_R3MP3ADUdeinterleaver@@8 1002a8e8     live555:MP3ADUinterleaving.obj
 0002:0000f8f8       ??_R2MP3ADUdeinterleaver@@8 1002a8f8     live555:MP3ADUinterleaving.obj
 0002:0000f914       ??_R1A@?0A@EA@DeinterleavingFrameDescriptor@@8 1002a914     live555:MP3ADUinterleaving.obj
 0002:0000f930       ??_R2DeinterleavingFrames@@8 1002a930     live555:MP3ADUinterleaving.obj
 0002:0000f938       ??_R3MPEG4ESVideoRTPSource@@8 1002a938     live555:MPEG4ESVideoRTPSource.obj
 0002:0000f948       ??_R1A@?0A@EA@MPEG4ESVideoRTPSource@@8 1002a948     live555:MPEG4ESVideoRTPSource.obj
 0002:0000f964       ??_R2MPEG4ESVideoRTPSource@@8 1002a964     live555:MPEG4ESVideoRTPSource.obj
 0002:0000f980       ??_R4MPEG4ESVideoRTPSource@@6B@ 1002a980     live555:MPEG4ESVideoRTPSource.obj
 0002:0000f994       ??_R1A@?0A@EA@QuickTimeGenericRTPSource@@8 1002a994     live555:QuickTimeGenericRTPSource.obj
 0002:0000f9b0       ??_R4QTGenericBufferedPacketFactory@@6B@ 1002a9b0     live555:QuickTimeGenericRTPSource.obj
 0002:0000f9c4       ??_R3QTGenericBufferedPacket@@8 1002a9c4     live555:QuickTimeGenericRTPSource.obj
 0002:0000f9d4       ??_R2QTGenericBufferedPacket@@8 1002a9d4     live555:QuickTimeGenericRTPSource.obj
 0002:0000f9e0       ??_R2QTGenericBufferedPacketFactory@@8 1002a9e0     live555:QuickTimeGenericRTPSource.obj
 0002:0000f9ec       ??_R4QTGenericBufferedPacket@@6B@ 1002a9ec     live555:QuickTimeGenericRTPSource.obj
 0002:0000fa00       ??_R3QTGenericBufferedPacketFactory@@8 1002aa00     live555:QuickTimeGenericRTPSource.obj
 0002:0000fa10       ??_R1A@?0A@EA@QTGenericBufferedPacket@@8 1002aa10     live555:QuickTimeGenericRTPSource.obj
 0002:0000fa2c       ??_R2QuickTimeGenericRTPSource@@8 1002aa2c     live555:QuickTimeGenericRTPSource.obj
 0002:0000fa48       ??_R4QuickTimeGenericRTPSource@@6B@ 1002aa48     live555:QuickTimeGenericRTPSource.obj
 0002:0000fa5c       ??_R3QuickTimeGenericRTPSource@@8 1002aa5c     live555:QuickTimeGenericRTPSource.obj
 0002:0000fa6c       ??_R1A@?0A@EA@QTGenericBufferedPacketFactory@@8 1002aa6c     live555:QuickTimeGenericRTPSource.obj
 0002:0000fa88       ??_R1A@?0A@EA@MPEG2TransportStreamFramer@@8 1002aa88     live555:MPEG2TransportStreamFramer.obj
 0002:0000faa4       ??_R3MPEG2TransportStreamFramer@@8 1002aaa4     live555:MPEG2TransportStreamFramer.obj
 0002:0000fab4       ??_R2MPEG2TransportStreamFramer@@8 1002aab4     live555:MPEG2TransportStreamFramer.obj
 0002:0000facc       ??_R4MPEG2TransportStreamFramer@@6B@ 1002aacc     live555:MPEG2TransportStreamFramer.obj
 0002:0000fae0       ??_R2JPEGBufferedPacketFactory@@8 1002aae0     live555:JPEGVideoRTPSource.obj
 0002:0000faec       ??_R1A@?0A@EA@JPEGBufferedPacket@@8 1002aaec     live555:JPEGVideoRTPSource.obj
 0002:0000fb08       ??_R2JPEGVideoRTPSource@@8 1002ab08     live555:JPEGVideoRTPSource.obj
 0002:0000fb24       ??_R1A@?0A@EA@JPEGBufferedPacketFactory@@8 1002ab24     live555:JPEGVideoRTPSource.obj
 0002:0000fb40       ??_R4JPEGBufferedPacket@@6B@ 1002ab40     live555:JPEGVideoRTPSource.obj
 0002:0000fb54       ??_R3JPEGBufferedPacketFactory@@8 1002ab54     live555:JPEGVideoRTPSource.obj
 0002:0000fb64       ??_R4JPEGVideoRTPSource@@6B@ 1002ab64     live555:JPEGVideoRTPSource.obj
 0002:0000fb78       ??_R3JPEGVideoRTPSource@@8 1002ab78     live555:JPEGVideoRTPSource.obj
 0002:0000fb88       ??_R4JPEGBufferedPacketFactory@@6B@ 1002ab88     live555:JPEGVideoRTPSource.obj
 0002:0000fb9c       ??_R1A@?0A@EA@JPEGVideoRTPSource@@8 1002ab9c     live555:JPEGVideoRTPSource.obj
 0002:0000fbb8       ??_R2JPEGBufferedPacket@@8 1002abb8     live555:JPEGVideoRTPSource.obj
 0002:0000fbc4       ??_R3JPEGBufferedPacket@@8 1002abc4     live555:JPEGVideoRTPSource.obj
 0002:0000fbd4       ??_R2MPEG1or2AudioRTPSource@@8 1002abd4     live555:MPEG1or2AudioRTPSource.obj
 0002:0000fbf0       ??_R3MPEG1or2AudioRTPSource@@8 1002abf0     live555:MPEG1or2AudioRTPSource.obj
 0002:0000fc00       ??_R4MPEG1or2AudioRTPSource@@6B@ 1002ac00     live555:MPEG1or2AudioRTPSource.obj
 0002:0000fc14       ??_R1A@?0A@EA@MPEG1or2AudioRTPSource@@8 1002ac14     live555:MPEG1or2AudioRTPSource.obj
 0002:0000fc30       ??_R4MPEG4GenericBufferedPacketFactory@@6B@ 1002ac30     live555:MPEG4GenericRTPSource.obj
 0002:0000fc44       ??_R3MPEG4GenericBufferedPacketFactory@@8 1002ac44     live555:MPEG4GenericRTPSource.obj
 0002:0000fc54       ??_R2MPEG4GenericRTPSource@@8 1002ac54     live555:MPEG4GenericRTPSource.obj
 0002:0000fc70       ??_R3MPEG4GenericBufferedPacket@@8 1002ac70     live555:MPEG4GenericRTPSource.obj
 0002:0000fc80       ??_R2MPEG4GenericBufferedPacketFactory@@8 1002ac80     live555:MPEG4GenericRTPSource.obj
 0002:0000fc8c       ??_R4MPEG4GenericRTPSource@@6B@ 1002ac8c     live555:MPEG4GenericRTPSource.obj
 0002:0000fca0       ??_R1A@?0A@EA@MPEG4GenericRTPSource@@8 1002aca0     live555:MPEG4GenericRTPSource.obj
 0002:0000fcbc       ??_R3MPEG4GenericRTPSource@@8 1002acbc     live555:MPEG4GenericRTPSource.obj
 0002:0000fccc       ??_R1A@?0A@EA@MPEG4GenericBufferedPacket@@8 1002accc     live555:MPEG4GenericRTPSource.obj
 0002:0000fce8       ??_R2MPEG4GenericBufferedPacket@@8 1002ace8     live555:MPEG4GenericRTPSource.obj
 0002:0000fcf4       ??_R1A@?0A@EA@MPEG4GenericBufferedPacketFactory@@8 1002acf4     live555:MPEG4GenericRTPSource.obj
 0002:0000fd10       ??_R4MPEG4GenericBufferedPacket@@6B@ 1002ad10     live555:MPEG4GenericRTPSource.obj
 0002:0000fd24       ??_R2RTCPInstance@@8       1002ad24     live555:RTCP.obj
 0002:0000fd30       ??_R4RTCPInstance@@6B@     1002ad30     live555:RTCP.obj
 0002:0000fd44       ??_R3RTCPMemberDatabase@@8 1002ad44     live555:RTCP.obj
 0002:0000fd54       ??_R2RTCPMemberDatabase@@8 1002ad54     live555:RTCP.obj
 0002:0000fd5c       ??_R1A@?0A@EA@RTCPInstance@@8 1002ad5c     live555:RTCP.obj
 0002:0000fd78       ??_R4RTCPMemberDatabase@@6B@ 1002ad78     live555:RTCP.obj
 0002:0000fd8c       ??_R3RTCPInstance@@8       1002ad8c     live555:RTCP.obj
 0002:0000fd9c       ??_R1A@?0A@EA@RTCPMemberDatabase@@8 1002ad9c     live555:RTCP.obj
 0002:0000fdb8       ??_R4VP8VideoRTPSource@@6B@ 1002adb8     live555:VP8VideoRTPSource.obj
 0002:0000fdcc       ??_R3VP8VideoRTPSource@@8  1002adcc     live555:VP8VideoRTPSource.obj
 0002:0000fddc       ??_R2VP8VideoRTPSource@@8  1002addc     live555:VP8VideoRTPSource.obj
 0002:0000fdf8       ??_R1A@?0A@EA@VP8VideoRTPSource@@8 1002adf8     live555:VP8VideoRTPSource.obj
 0002:0000fe14       ??_R2AMRDeinterleavingBuffer@@8 1002ae14     live555:AMRAudioRTPSource.obj
 0002:0000fe1c       ??_R1A@?0A@EA@AMRBufferedPacketFactory@@8 1002ae1c     live555:AMRAudioRTPSource.obj
 0002:0000fe38       ??_R1A@?0A@EA@RawAMRRTPSource@@8 1002ae38     live555:AMRAudioRTPSource.obj
 0002:0000fe54       ??_R1A@?0A@EA@AMRAudioSource@@8 1002ae54     live555:AMRAudioRTPSource.obj
 0002:0000fe70       ??_R3AMRBufferedPacket@@8  1002ae70     live555:AMRAudioRTPSource.obj
 0002:0000fe80       ??_R2RawAMRRTPSource@@8    1002ae80     live555:AMRAudioRTPSource.obj
 0002:0000fe9c       ??_R3RawAMRRTPSource@@8    1002ae9c     live555:AMRAudioRTPSource.obj
 0002:0000feac       ??_R1A@?0A@EA@AMRBufferedPacket@@8 1002aeac     live555:AMRAudioRTPSource.obj
 0002:0000fec8       ??_R3FrameDescriptor@AMRDeinterleavingBuffer@@8 1002aec8     live555:AMRAudioRTPSource.obj
 0002:0000fed8       ??_R3AMRDeinterleaver@@8   1002aed8     live555:AMRAudioRTPSource.obj
 0002:0000fee8       ??_R4AMRBufferedPacket@@6B@ 1002aee8     live555:AMRAudioRTPSource.obj
 0002:0000fefc       ??_R1A@?0A@EA@AMRDeinterleavingBuffer@@8 1002aefc     live555:AMRAudioRTPSource.obj
 0002:0000ff18       ??_R1A@?0A@EA@AMRDeinterleaver@@8 1002af18     live555:AMRAudioRTPSource.obj
 0002:0000ff34       ??_R2AMRAudioSource@@8     1002af34     live555:AMRAudioRTPSource.obj
 0002:0000ff48       ??_R4FrameDescriptor@AMRDeinterleavingBuffer@@6B@ 1002af48     live555:AMRAudioRTPSource.obj
 0002:0000ff5c       ??_R4AMRBufferedPacketFactory@@6B@ 1002af5c     live555:AMRAudioRTPSource.obj
 0002:0000ff70       ??_R1A@?0A@EA@FrameDescriptor@AMRDeinterleavingBuffer@@8 1002af70     live555:AMRAudioRTPSource.obj
 0002:0000ff8c       ??_R4AMRDeinterleavingBuffer@@6B@ 1002af8c     live555:AMRAudioRTPSource.obj
 0002:0000ffa0       ??_R4RawAMRRTPSource@@6B@  1002afa0     live555:AMRAudioRTPSource.obj
 0002:0000ffb4       ??_R2AMRBufferedPacketFactory@@8 1002afb4     live555:AMRAudioRTPSource.obj
 0002:0000ffc0       ??_R3AMRBufferedPacketFactory@@8 1002afc0     live555:AMRAudioRTPSource.obj
 0002:0000ffd0       ??_R3AMRAudioSource@@8     1002afd0     live555:AMRAudioRTPSource.obj
 0002:0000ffe0       ??_R2FrameDescriptor@AMRDeinterleavingBuffer@@8 1002afe0     live555:AMRAudioRTPSource.obj
 0002:0000ffe8       ??_R3AMRDeinterleavingBuffer@@8 1002afe8     live555:AMRAudioRTPSource.obj
 0002:0000fff8       ??_R4AMRDeinterleaver@@6B@ 1002aff8     live555:AMRAudioRTPSource.obj
 0002:0001000c       ??_R2AMRDeinterleaver@@8   1002b00c     live555:AMRAudioRTPSource.obj
 0002:00010024       ??_R2AMRBufferedPacket@@8  1002b024     live555:AMRAudioRTPSource.obj
 0002:00010030       ??_R1A@?0A@EA@OutputSocket@@8 1002b030     live555:Groupsock.obj
 0002:0001004c       ??_R4OutputSocket@@6B@     1002b04c     live555:Groupsock.obj
 0002:00010060       ??_R2OutputSocket@@8       1002b060     live555:Groupsock.obj
 0002:00010070       ??_R1A@?0A@EA@Groupsock@@8 1002b070     live555:Groupsock.obj
 0002:0001008c       ??_R3Groupsock@@8          1002b08c     live555:Groupsock.obj
 0002:0001009c       ??_R3OutputSocket@@8       1002b09c     live555:Groupsock.obj
 0002:000100ac       ??_R2destRecord@@8         1002b0ac     live555:Groupsock.obj
 0002:000100b4       ??_R4Groupsock@@6B@        1002b0b4     live555:Groupsock.obj
 0002:000100c8       ??_R1A@?0A@EA@destRecord@@8 1002b0c8     live555:Groupsock.obj
 0002:000100e4       ??_R4destRecord@@6B@       1002b0e4     live555:Groupsock.obj
 0002:000100f8       ??_R3destRecord@@8         1002b0f8     live555:Groupsock.obj
 0002:00010108       ??_R2Groupsock@@8          1002b108     live555:Groupsock.obj
 0002:0001011c       ??_R2DVVideoRTPSource@@8   1002b11c     live555:DVVideoRTPSource.obj
 0002:00010138       ??_R3DVVideoRTPSource@@8   1002b138     live555:DVVideoRTPSource.obj
 0002:00010148       ??_R1A@?0A@EA@DVVideoRTPSource@@8 1002b148     live555:DVVideoRTPSource.obj
 0002:00010164       ??_R4DVVideoRTPSource@@6B@ 1002b164     live555:DVVideoRTPSource.obj
 0002:00010178       ??_R2ADUBufferedPacket@@8  1002b178     live555:MP3ADURTPSource.obj
 0002:00010184       ??_R3ADUBufferedPacketFactory@@8 1002b184     live555:MP3ADURTPSource.obj
 0002:00010194       ??_R4ADUBufferedPacketFactory@@6B@ 1002b194     live555:MP3ADURTPSource.obj
 0002:000101a8       ??_R3MP3ADURTPSource@@8    1002b1a8     live555:MP3ADURTPSource.obj
 0002:000101b8       ??_R2ADUBufferedPacketFactory@@8 1002b1b8     live555:MP3ADURTPSource.obj
 0002:000101c4       ??_R3ADUBufferedPacket@@8  1002b1c4     live555:MP3ADURTPSource.obj
 0002:000101d4       ??_R1A@?0A@EA@ADUBufferedPacket@@8 1002b1d4     live555:MP3ADURTPSource.obj
 0002:000101f0       ??_R4ADUBufferedPacket@@6B@ 1002b1f0     live555:MP3ADURTPSource.obj
 0002:00010204       ??_R4MP3ADURTPSource@@6B@  1002b204     live555:MP3ADURTPSource.obj
 0002:00010218       ??_R2MP3ADURTPSource@@8    1002b218     live555:MP3ADURTPSource.obj
 0002:00010234       ??_R1A@?0A@EA@MP3ADURTPSource@@8 1002b234     live555:MP3ADURTPSource.obj
 0002:00010250       ??_R1A@?0A@EA@ADUBufferedPacketFactory@@8 1002b250     live555:MP3ADURTPSource.obj
 0002:0001026c       ??_R4MediaSource@@6B@      1002b26c     live555:MediaSource.obj
 0002:00010280       ??_R2HandlerSet@@8         1002b280     live555:BasicTaskScheduler0.obj
 0002:00010288       ??_R1A@?0A@EA@HandlerSet@@8 1002b288     live555:BasicTaskScheduler0.obj
 0002:000102a4       ??_R2HandlerIterator@@8    1002b2a4     live555:BasicTaskScheduler0.obj
 0002:000102ac       ??_R4HandlerIterator@@6B@  1002b2ac     live555:BasicTaskScheduler0.obj
 0002:000102c0       ??_R4BasicTaskScheduler0@@6B@ 1002b2c0     live555:BasicTaskScheduler0.obj
 0002:000102d4       ??_R3HandlerIterator@@8    1002b2d4     live555:BasicTaskScheduler0.obj
 0002:000102e4       ??_R3AlarmHandler@@8       1002b2e4     live555:BasicTaskScheduler0.obj
 0002:000102f4       ??_R1A@?0A@EA@HandlerDescriptor@@8 1002b2f4     live555:BasicTaskScheduler0.obj
 0002:00010310       ??_R4HandlerDescriptor@@6B@ 1002b310     live555:BasicTaskScheduler0.obj
 0002:00010324       ??_R1A@?0A@EA@AlarmHandler@@8 1002b324     live555:BasicTaskScheduler0.obj
 0002:00010340       ??_R2AlarmHandler@@8       1002b340     live555:BasicTaskScheduler0.obj
 0002:0001034c       ??_R4HandlerSet@@6B@       1002b34c     live555:BasicTaskScheduler0.obj
 0002:00010360       ??_R3HandlerDescriptor@@8  1002b360     live555:BasicTaskScheduler0.obj
 0002:00010370       ??_R3HandlerSet@@8         1002b370     live555:BasicTaskScheduler0.obj
 0002:00010380       ??_R2HandlerDescriptor@@8  1002b380     live555:BasicTaskScheduler0.obj
 0002:00010388       ??_R1A@?0A@EA@HandlerIterator@@8 1002b388     live555:BasicTaskScheduler0.obj
 0002:000103a4       ??_R4AlarmHandler@@6B@     1002b3a4     live555:BasicTaskScheduler0.obj
 0002:000103b8       ??_R1A@?0A@EA@tcpStreamRecord@@8 1002b3b8     live555:RTPInterface.obj
 0002:000103d4       ??_R1A@?0A@EA@SocketDescriptor@@8 1002b3d4     live555:RTPInterface.obj
 0002:000103f0       ??_R4tcpStreamRecord@@6B@  1002b3f0     live555:RTPInterface.obj
 0002:00010404       ??_R2tcpStreamRecord@@8    1002b404     live555:RTPInterface.obj
 0002:0001040c       ??_R3tcpStreamRecord@@8    1002b40c     live555:RTPInterface.obj
 0002:0001041c       ??_R3SocketDescriptor@@8   1002b41c     live555:RTPInterface.obj
 0002:0001042c       ??_R1A@?0A@EA@RTPInterface@@8 1002b42c     live555:RTPInterface.obj
 0002:00010448       ??_R2RTPInterface@@8       1002b448     live555:RTPInterface.obj
 0002:00010450       ??_R2SocketDescriptor@@8   1002b450     live555:RTPInterface.obj
 0002:00010458       ??_R4RTPInterface@@6B@     1002b458     live555:RTPInterface.obj
 0002:0001046c       ??_R3RTPInterface@@8       1002b46c     live555:RTPInterface.obj
 0002:0001047c       ??_R4SocketDescriptor@@6B@ 1002b47c     live555:RTPInterface.obj
 0002:00010490       ??_R4BufferedPacket@@6B@   1002b490     live555:MultiFramedRTPSource.obj
 0002:000104a4       ??_R2ReorderingPacketBuffer@@8 1002b4a4     live555:MultiFramedRTPSource.obj
 0002:000104ac       ??_R4MultiFramedRTPSource@@6B@ 1002b4ac     live555:MultiFramedRTPSource.obj
 0002:000104c0       ??_R3ReorderingPacketBuffer@@8 1002b4c0     live555:MultiFramedRTPSource.obj
 0002:000104d0       ??_R4ReorderingPacketBuffer@@6B@ 1002b4d0     live555:MultiFramedRTPSource.obj
 0002:000104e4       ??_R4BufferedPacketFactory@@6B@ 1002b4e4     live555:MultiFramedRTPSource.obj
 0002:000104f8       ??_R1A@?0A@EA@ReorderingPacketBuffer@@8 1002b4f8     live555:MultiFramedRTPSource.obj
 0002:00010514       ??_R4FramedFilter@@6B@     1002b514     live555:FramedFilter.obj
 0002:00010528       ??_R2RTPTransmissionStats@@8 1002b528     live555:RTPSink.obj
 0002:00010530       ??_R3RTPTransmissionStats@@8 1002b530     live555:RTPSink.obj
 0002:00010540       ??_R4RTPTransmissionStats@@6B@ 1002b540     live555:RTPSink.obj
 0002:00010554       ??_R1A@?0A@EA@RTPTransmissionStats@@8 1002b554     live555:RTPSink.obj
 0002:00010570       ___safe_se_handler_table   1002b570     <linker-defined>
 0002:000106c8       ___rtc_iaa                 1002b6c8     msvcrt:initsect.obj
 0002:000106cc       ___rtc_izz                 1002b6cc     msvcrt:initsect.obj
 0002:000106d0       ___rtc_taa                 1002b6d0     msvcrt:initsect.obj
 0002:000106d4       ___rtc_tzz                 1002b6d4     msvcrt:initsect.obj
 0002:00011a04       __CTA2PAD                  1002ca04     odm-player:Live555.obj
 0002:00011a10       __TI2PAD                   1002ca10     odm-player:Live555.obj
 0002:00011a20       __CT??_R0PAX@84            1002ca20     odm-player:Live555.obj
 0002:00011a3c       __CT??_R0PAD@84            1002ca3c     odm-player:Live555.obj
 0002:00011a58       __IMPORT_DESCRIPTOR_MSVCR120 1002ca58     msvcrt:MSVCR120.dll
 0002:00011a6c       __IMPORT_DESCRIPTOR_KERNEL32 1002ca6c     kernel32:KERNEL32.dll
 0002:00011a80       __IMPORT_DESCRIPTOR_MSVCP120 1002ca80     msvcprt:MSVCP120.dll
 0002:00011a94       __IMPORT_DESCRIPTOR_WS2_32 1002ca94     ws2_32:WS2_32.dll
 0002:00011aa8       __IMPORT_DESCRIPTOR_avcodec-54 1002caa8     avcodec:avcodec-54.dll
 0002:00011abc       __IMPORT_DESCRIPTOR_avformat-54 1002cabc     avformat:avformat-54.dll
 0002:00011ad0       __IMPORT_DESCRIPTOR_avutil-51 1002cad0     avutil:avutil-51.dll
 0002:00011ae4       __IMPORT_DESCRIPTOR_swscale-2 1002cae4     swscale:swscale-2.dll
 0002:00011af8       __IMPORT_DESCRIPTOR_mscoree 1002caf8     mscoree:mscoree.dll
 0002:00011b0c       __NULL_IMPORT_DESCRIPTOR   1002cb0c     msvcrt:MSVCR120.dll
 0003:00000004       ??_7error_category@std@@6B@ 1002e004     libapi.obj
 0003:00000020       ??_7_Generic_error_category@std@@6B@ 1002e020     libapi.obj
 0003:0000003c       ??_7_Iostream_error_category@std@@6B@ 1002e03c     libapi.obj
 0003:00000058       ??_7_System_error_category@std@@6B@ 1002e058     libapi.obj
 0003:00000074       ??_7_Ref_count_base@std@@6B@ 1002e074     libapi.obj
 0003:00000088       ??_7IPlaybackController@onvifmp@@6B@ 1002e088     libapi.obj
 0003:00000094       ??_7?$_Func_base@XPAXH_NH@std@@6B@ 1002e094     libapi.obj
 0003:000000b4       ??_7?$_Ref_count_obj@VVideoBuffer@onvifmp@@@std@@6B@ 1002e0b4     libapi.obj
 0003:000000c8       ??_7?$_Ref_count_obj@VMediaStreamInfo@onvifmp@@@std@@6B@ 1002e0c8     libapi.obj
 0003:000000dc       ??_7ProxyPlaybackController@player@odm@@6B@ 1002e0dc     libapi.obj
 0003:000000e8       ??_7?$_Func_impl@U?$_Callable_obj@P6AXPAXH_NH@Z$0A@@std@@V?$allocator@V?$_Func_class@XPAXH_NH@std@@@2@XPAXH_NH@std@@6B@ 1002e0e8     libapi.obj
 0003:00000104       __mep@??_Eerror_category@std@@$$FUAEPAXI@Z 1002e104     libapi.obj
 0003:00000108       __mep@??_E_Generic_error_category@std@@$$FUAEPAXI@Z 1002e108     libapi.obj
 0003:0000010c       __mep@??_E_Iostream_error_category@std@@$$FUAEPAXI@Z 1002e10c     libapi.obj
 0003:00000110       __mep@??_E_System_error_category@std@@$$FUAEPAXI@Z 1002e110     libapi.obj
 0003:00000114       __mep@??_E_Ref_count_base@std@@$$FUAEPAXI@Z 1002e114     libapi.obj
 0003:00000118       __mep@??_E?$_Func_base@XPAXH_NH@std@@$$FUAEPAXI@Z 1002e118     libapi.obj
 0003:0000011c       __mep@?_Destroy@?$_Ref_count_obj@VVideoBuffer@onvifmp@@@std@@$$FEAEXXZ 1002e11c     libapi.obj
 0003:00000120       __mep@?_Delete_this@?$_Ref_count_obj@VVideoBuffer@onvifmp@@@std@@$$FEAEXXZ 1002e120     libapi.obj
 0003:00000124       __mep@??_E?$_Ref_count_obj@VVideoBuffer@onvifmp@@@std@@$$FUAEPAXI@Z 1002e124     libapi.obj
 0003:00000128       __mep@?_Destroy@?$_Ref_count_obj@VMediaStreamInfo@onvifmp@@@std@@$$FEAEXXZ 1002e128     libapi.obj
 0003:0000012c       __mep@?_Delete_this@?$_Ref_count_obj@VMediaStreamInfo@onvifmp@@@std@@$$FEAEXXZ 1002e12c     libapi.obj
 0003:00000130       __mep@??_E?$_Ref_count_obj@VMediaStreamInfo@onvifmp@@@std@@$$FUAEPAXI@Z 1002e130     libapi.obj
 0003:00000134       __mep@?Initialized@ProxyPlaybackController@player@odm@@$$FUAE_NPAVIPlaybackSession@onvifmp@@@Z 1002e134     libapi.obj
 0003:00000138       __mep@?Shutdown@ProxyPlaybackController@player@odm@@$$FUAEXXZ 1002e138     libapi.obj
 0003:0000013c       __mep@?_Copy@?$_Func_impl@U?$_Callable_obj@P6AXPAXH_NH@Z$0A@@std@@V?$allocator@V?$_Func_class@XPAXH_NH@std@@@2@XPAXH_NH@std@@$$FUAEPAV?$_Func_base@XPAXH_NH@2@PAX@Z 1002e13c     libapi.obj
 0003:00000140       __mep@?_Move@?$_Func_impl@U?$_Callable_obj@P6AXPAXH_NH@Z$0A@@std@@V?$allocator@V?$_Func_class@XPAXH_NH@std@@@2@XPAXH_NH@std@@$$FUAEPAV?$_Func_base@XPAXH_NH@2@PAX@Z 1002e140     libapi.obj
 0003:00000144       __mep@?_Do_call@?$_Func_impl@U?$_Callable_obj@P6AXPAXH_NH@Z$0A@@std@@V?$allocator@V?$_Func_class@XPAXH_NH@std@@@2@XPAXH_NH@std@@$$FUAEX$$QAPAX$$QAH$$QA_N1@Z 1002e144     libapi.obj
 0003:00000148       __mep@?_Target_type@?$_Func_impl@U?$_Callable_obj@P6AXPAXH_NH@Z$0A@@std@@V?$allocator@V?$_Func_class@XPAXH_NH@std@@@2@XPAXH_NH@std@@$$FUBEABVtype_info@@XZ 1002e148     libapi.obj
 0003:0000014c       __mep@?_Delete_this@?$_Func_impl@U?$_Callable_obj@P6AXPAXH_NH@Z$0A@@std@@V?$allocator@V?$_Func_class@XPAXH_NH@std@@@2@XPAXH_NH@std@@$$FEAEX_N@Z 1002e14c     libapi.obj
 0003:00000150       __mep@??_E?$_Func_impl@U?$_Callable_obj@P6AXPAXH_NH@Z$0A@@std@@V?$allocator@V?$_Func_class@XPAXH_NH@std@@@2@XPAXH_NH@std@@$$FUAEPAXI@Z 1002e150     libapi.obj
 0003:00000154       __mep@?_Get@?$_Func_impl@U?$_Callable_obj@P6AXPAXH_NH@Z$0A@@std@@V?$allocator@V?$_Func_class@XPAXH_NH@std@@@2@XPAXH_NH@std@@$$FEBEPBXXZ 1002e154     libapi.obj
 0003:00000160       ___native_dllmain_reason   1002e160     msvcrt:natstart.obj
 0003:00000164       ___security_cookie         1002e164     msvcrt:gs_cookie.obj
 0003:00000168       ___security_cookie_complement 1002e168     msvcrt:gs_cookie.obj
 0003:0000016c       ?hasPerProcess@DefaultDomain@<CrtImplementationDetails>@@0W4State@TriBool@2@A 1002e16c     msvcmrt:mstartup.obj
 0003:00000170       ?hasNative@DefaultDomain@<CrtImplementationDetails>@@0W4State@TriBool@2@A 1002e170     msvcmrt:mstartup.obj
 0003:00000174       __mep@?DoNothing@DefaultDomain@<CrtImplementationDetails>@@$$FCGJPAX@Z 1002e174     msvcmrt:mstartup.obj
 0003:00000178       __mep@?_UninitializeDefaultDomain@LanguageSupport@<CrtImplementationDetails>@@$$FCGJPAX@Z 1002e178     msvcmrt:mstartup.obj
 0003:00000180       ?loopbackWorks@@3_NA       1002e180     live555:GroupsockHelper.obj
 0003:00000218       ?maxSize@OutPacketBuffer@@2IA 1002e218     live555:MediaSink.obj
 0003:00000260       ?huffdec@@3PAEA            1002e260     live555:MP3InternalsHuffmanTable.obj
 0003:000049cc       ?DELAY_SECOND@@3VDelayInterval@@B 100329cc     live555:DelayQueue.obj
 0003:000049d4       ?_System_object@?$_Error_objects@H@std@@2V_System_error_category@2@A 100329d4     live555:NetInterface.obj
 0003:000049d8       ?_Generic_object@?$_Error_objects@H@std@@2V_Generic_error_category@2@A 100329d8     live555:NetInterface.obj
 0003:000049dc       ?_Iostream_object@?$_Error_objects@H@std@@2V_Iostream_error_category@2@A 100329dc     live555:NetInterface.obj
 0003:000049e0       ??_R0?AVIPlaybackController@onvifmp@@@8 100329e0     libapi.obj
 0003:00004a0c       ??_R0?AV?$_Func_base@XPAXH_NH@std@@@8 10032a0c     libapi.obj
 0003:00004a34       ??_R0?AV?$_Ref_count_obj@VVideoBuffer@onvifmp@@@std@@@8 10032a34     libapi.obj
 0003:00004a70       ??_R0?AV?$_Ref_count_obj@VMediaStreamInfo@onvifmp@@@std@@@8 10032a70     libapi.obj
 0003:00004ab0       ??_R0?AVProxyPlaybackController@player@odm@@@8 10032ab0     libapi.obj
 0003:00004ae8       ??_R0?AV?$_Func_impl@U?$_Callable_obj@P6AXPAXH_NH@Z$0A@@std@@V?$allocator@V?$_Func_class@XPAXH_NH@std@@@2@XPAXH_NH@std@@@8 10032ae8     libapi.obj
 0003:00004b68       ??_R0P6AXPAXH_NH@Z@8       10032b68     libapi.obj
 0003:00004b80       ??_R0?AVtype_info@@@8      10032b80     msvcrt:ti_inst.obj
 0003:00004b98       ??_R0?AVSocket@@@8         10032b98     live555:NetInterface.obj
 0003:00004bb0       ??_R0?AV_Iostream_error_category@std@@@8 10032bb0     live555:NetInterface.obj
 0003:00004bdc       ??_R0?AV_System_error_category@std@@@8 10032bdc     live555:NetInterface.obj
 0003:00004c08       ??_R0?AVIterator@DirectedNetInterfaceSet@@@8 10032c08     live555:NetInterface.obj
 0003:00004c38       ??_R0?AVNetInterface@@@8   10032c38     live555:NetInterface.obj
 0003:00004c54       ??_R0?AVerror_category@std@@@8 10032c54     live555:NetInterface.obj
 0003:00004c78       ??_R0?AV_Generic_error_category@std@@@8 10032c78     live555:NetInterface.obj
 0003:00004ca4       ??_R0?AVDirectedNetInterfaceSet@@@8 10032ca4     live555:NetInterface.obj
 0003:00004ccc       ??_R0?AVDelayQueue@@@8     10032ccc     live555:DelayQueue.obj
 0003:00004ce8       ??_R0?AVDelayQueueEntry@@@8 10032ce8     live555:DelayQueue.obj
 0003:00004d08       ??_R0?AVIterator@BasicHashTable@@@8 10032d08     live555:BasicHashTable.obj
 0003:00004d30       ??_R0?AVBasicHashTable@@@8 10032d30     live555:BasicHashTable.obj
 0003:00004d50       ??_R0?AVIterator@HashTable@@@8 10032d50     live555:BasicHashTable.obj
 0003:00004d74       ??_R0?AVHashTable@@@8      10032d74     live555:BasicHashTable.obj
 0003:00004d8c       ??_R0?AVNetAddressList@@@8 10032d8c     live555:NetAddress.obj
 0003:00004dac       ??_R0?AVIterator@AddressPortLookupTable@@@8 10032dac     live555:NetAddress.obj
 0003:00004ddc       ??_R0?AVAddressString@@@8  10032ddc     live555:NetAddress.obj
 0003:00004df8       ??_R0?AVNetAddress@@@8     10032df8     live555:NetAddress.obj
 0003:00004e14       ??_R0?AVIFrameProcessor@onvifmp@@@8 10032e14     odm-player:MetadataCollector.obj
 0003:00004e3c       ??_R0?AV<lambda_2f111f34529ba06998f18f1e2734b49b>@@@8 10032e3c     odm-player:MetadataCollector.obj
 0003:00004e74       ??_R0?AV_Ref_count_base@std@@@8 10032e74     odm-player:MetadataCollector.obj
 0003:00004e98       ??_R0?AVIDisposable@onvifmp@@@8 10032e98     odm-player:MetadataCollector.obj
 0003:00004ec0       ??_R0?AV?$_Ref_count_obj@VMetadataCollector@onvifmp@@@std@@@8 10032ec0     odm-player:MetadataCollector.obj
 0003:00004f00       ??_R0?AV?$_Func_base@V?$shared_ptr@VMetadataCollector@onvifmp@@@std@@PAVVirtualSink@onvifmp@@@std@@@8 10032f00     odm-player:MetadataCollector.obj
 0003:00004f68       ??_R0?AVMetadataCollector@onvifmp@@@8 10032f68     odm-player:MetadataCollector.obj
 0003:00004f90       ??_R0?AVILive555Unit@onvifmp@@@8 10032f90     odm-player:MetadataCollector.obj
 0003:00004fb8       ??_R0?AV?$_Func_impl@U?$_Callable_obj@V<lambda_2f111f34529ba06998f18f1e2734b49b>@@$0A@@std@@V?$allocator@V?$_Func_class@V?$shared_ptr@VMetadataCollector@onvifmp@@@std@@PAVVirtualSink@onvifmp@@@std@@@2@V?$shared_ptr@VMetadataCollector@onvifmp@@@2@PAVVirtualSink@onvifmp@@@std@@@8 10032fb8     odm-player:MetadataCollector.obj
 0003:000050d4       ??_R0?AVAuthenticator@@@8  100330d4     live555:DigestAuthentication.obj
 0003:000050f0       ??_R0?AV?$_Ref_count_obj@VVideoDecoder@onvifmp@@@std@@@8 100330f0     odm-player:Live555.obj
 0003:00005130       ??_R0?AV?$_Func_base@V?$shared_ptr@VIVideoRenderer@onvifmp@@@std@@PAVVideoDecoder@onvifmp@@@std@@@8 10033130     odm-player:Live555.obj
 0003:00005198       ??_R0?AV?$_Func_impl@U?$_Callable_obj@V<lambda_10aef3f9c20489329aef1d0346f46932>@@$0A@@std@@V?$allocator@V?$_Func_class@V?$shared_ptr@VIVideoRenderer@onvifmp@@@std@@PAVVideoDecoder@onvifmp@@@std@@@2@V?$shared_ptr@VIVideoRenderer@onvifmp@@@2@PAVVideoDecoder@onvifmp@@@std@@@8 10033198     odm-player:Live555.obj
 0003:000052b0       ??_R0?AV<lambda_de1d15fe10d4d9865796d6851c4d8d4d>@@@8 100332b0     odm-player:Live555.obj
 0003:000052e8       ??_R0?AVVirtualSink@onvifmp@@@8 100332e8     odm-player:Live555.obj
 0003:0000530c       ??_R0?AVH264VirtualSink@onvifmp@@@8 1003330c     odm-player:Live555.obj
 0003:00005334       ??_R0?AV<lambda_6f17768ec1e816bdad31c3395b38e95e>@@@8 10033334     odm-player:Live555.obj
 0003:0000536c       ??_R0?AVMediaSink@@@8      1003336c     odm-player:Live555.obj
 0003:00005384       ??_R0?AV?$_Ref_count_obj@VVideoRenderer@onvifmp@@@std@@@8 10033384     odm-player:Live555.obj
 0003:000053c0       ??_R0?AV?$_Func_impl@U?$_Callable_obj@V<lambda_de1d15fe10d4d9865796d6851c4d8d4d>@@$0A@@std@@V?$allocator@V?$_Func_class@V?$shared_ptr@VIFrameProcessor@onvifmp@@@std@@PAVVirtualSink@onvifmp@@@std@@@2@V?$shared_ptr@VIFrameProcessor@onvifmp@@@2@PAVVirtualSink@onvifmp@@@std@@@8 100333c0     odm-player:Live555.obj
 0003:000054d8       ??_R0?AVIPlaybackSession@onvifmp@@@8 100334d8     odm-player:Live555.obj
 0003:00005500       ??_R0PAD@8                 10033500     odm-player:Live555.obj
 0003:00005510       ??_R0?AVVideoDecoder@onvifmp@@@8 10033510     odm-player:Live555.obj
 0003:00005534       ??_R0?AV<lambda_02633da78dd085cd30a2d2935e5e427d>@@@8 10033534     odm-player:Live555.obj
 0003:00005570       ??_R0?AV?$_Func_impl@U?$_Callable_obj@V<lambda_6f17768ec1e816bdad31c3395b38e95e>@@$0A@@std@@V?$allocator@V?$_Func_class@V?$shared_ptr@VVideoDecoder@onvifmp@@@std@@PAVVirtualSink@onvifmp@@@std@@@2@V?$shared_ptr@VVideoDecoder@onvifmp@@@2@PAVVirtualSink@onvifmp@@@std@@@8 10033570     odm-player:Live555.obj
 0003:00005680       ??_R0?AVIVideoRenderer@onvifmp@@@8 10033680     odm-player:Live555.obj
 0003:000056a8       ??_R0?AVMedium@@@8         100336a8     odm-player:Live555.obj
 0003:000056c0       ??_R0?AV<lambda_10aef3f9c20489329aef1d0346f46932>@@@8 100336c0     odm-player:Live555.obj
 0003:000056f8       ??_R0?AV?$_Func_impl@U?$_Callable_obj@V<lambda_02633da78dd085cd30a2d2935e5e427d>@@$0A@@std@@V?$allocator@V?$_Func_class@V?$shared_ptr@VIFrameProcessor@onvifmp@@@std@@PAVVirtualSink@onvifmp@@@std@@@2@V?$shared_ptr@VIFrameProcessor@onvifmp@@@2@PAVVirtualSink@onvifmp@@@std@@@8 100336f8     odm-player:Live555.obj
 0003:00005810       ??_R0?AUPlaybackSession@?4??Run@Live555@onvifmp@@QAEXPAVMediaStreamInfo@3@PAVIPlaybackController@3@@Z@@8 10033810     odm-player:Live555.obj
 0003:00005880       ??_R0?AV?$_Func_base@V?$shared_ptr@VVideoDecoder@onvifmp@@@std@@PAVVirtualSink@onvifmp@@@std@@@8 10033880     odm-player:Live555.obj
 0003:000058e8       ??_R0?AV?$_Func_base@V?$shared_ptr@VIFrameProcessor@onvifmp@@@std@@PAVVirtualSink@onvifmp@@@std@@@8 100338e8     odm-player:Live555.obj
 0003:00005950       ??_R0PAX@8                 10033950     odm-player:Live555.obj
 0003:00005960       ??_R0?AVVideoRenderer@onvifmp@@@8 10033960     odm-player:Live555.obj
 0003:00005984       ??_R0?AVMediaSubsessionIterator@@@8 10033984     live555:MediaSession.obj
 0003:000059ac       ??_R0?AVMediaSession@@@8   100339ac     live555:MediaSession.obj
 0003:000059c8       ??_R0?AVMediaSubsession@@@8 100339c8     live555:MediaSession.obj
 0003:000059e8       ??_R0?AVMediaSource@@@8    100339e8     live555:FramedSource.obj
 0003:00005a04       ??_R0?AVFramedSource@@@8   10033a04     live555:FramedSource.obj
 0003:00005a20       ??_R0?AVBasicUsageEnvironment0@@@8 10033a20     live555:BasicUsageEnvironment.obj
 0003:00005a48       ??_R0?AVUsageEnvironment@@@8 10033a48     live555:BasicUsageEnvironment.obj
 0003:00005a68       ??_R0?AVBasicUsageEnvironment@@@8 10033a68     live555:BasicUsageEnvironment.obj
 0003:00005a8c       ??_R0?AVBasicTaskScheduler0@@@8 10033a8c     live555:BasicTaskScheduler.obj
 0003:00005ab0       ??_R0?AVBasicTaskScheduler@@@8 10033ab0     live555:BasicTaskScheduler.obj
 0003:00005ad4       ??_R0?AVTaskScheduler@@@8  10033ad4     live555:BasicTaskScheduler.obj
 0003:00005af0       ??_R0?AVRequestQueue@RTSPClient@@@8 10033af0     live555:RTSPClient.obj
 0003:00005b18       ??_R0?AVRTSPClient@@@8     10033b18     live555:RTSPClient.obj
 0003:00005b34       ??_R0?AVRequestRecord@RTSPClient@@@8 10033b34     live555:RTSPClient.obj
 0003:00005b5c       ??_R0?AV_Tables@@@8        10033b5c     live555:Media.obj
 0003:00005b74       ??_R0?AVMediaLookupTable@@@8 10033b74     live555:Media.obj
 0003:00005b94       ??_R0?AVH264BufferedPacketFactory@@@8 10033b94     live555:H264VideoRTPSource.obj
 0003:00005bbc       ??_R0?AVRTPSource@@@8      10033bbc     live555:H264VideoRTPSource.obj
 0003:00005bd4       ??_R0?AVH264BufferedPacket@@@8 10033bd4     live555:H264VideoRTPSource.obj
 0003:00005bf8       ??_R0?AVH264VideoRTPSource@@@8 10033bf8     live555:H264VideoRTPSource.obj
 0003:00005c1c       ??_R0?AVBufferedPacket@@@8 10033c1c     live555:H264VideoRTPSource.obj
 0003:00005c3c       ??_R0?AVBufferedPacketFactory@@@8 10033c3c     live555:H264VideoRTPSource.obj
 0003:00005c60       ??_R0?AVMultiFramedRTPSource@@@8 10033c60     live555:H264VideoRTPSource.obj
 0003:00005c84       ??_R0?AVH263plusVideoRTPSource@@@8 10033c84     live555:H263plusVideoRTPSource.obj
 0003:00005cac       ??_R0?AVRTPReceptionStatsDB@@@8 10033cac     live555:RTPSource.obj
 0003:00005cd0       ??_R0?AVRTPReceptionStats@@@8 10033cd0     live555:RTPSource.obj
 0003:00005cf0       ??_R0?AVIterator@RTPReceptionStatsDB@@@8 10033cf0     live555:RTPSource.obj
 0003:00005d1c       ??_R0?AVVorbisAudioRTPSource@@@8 10033d1c     live555:VorbisAudioRTPSource.obj
 0003:00005d40       ??_R0?AVVorbisBufferedPacketFactory@@@8 10033d40     live555:VorbisAudioRTPSource.obj
 0003:00005d6c       ??_R0?AVVorbisBufferedPacket@@@8 10033d6c     live555:VorbisAudioRTPSource.obj
 0003:00005d90       ??_R0?AVLocale@@@8         10033d90     live555:Locale.obj
 0003:00005da8       ??_R0?AVSimpleRTPSource@@@8 10033da8     live555:SimpleRTPSource.obj
 0003:00005dc8       ??_R0?AVFramedFilter@@@8   10033dc8     live555:QCELPAudioRTPSource.obj
 0003:00005de4       ??_R0?AVQCELPBufferedPacket@@@8 10033de4     live555:QCELPAudioRTPSource.obj
 0003:00005e08       ??_R0?AVQCELPDeinterleaver@@@8 10033e08     live555:QCELPAudioRTPSource.obj
 0003:00005e2c       ??_R0?AVQCELPDeinterleavingBuffer@@@8 10033e2c     live555:QCELPAudioRTPSource.obj
 0003:00005e54       ??_R0?AVQCELPBufferedPacketFactory@@@8 10033e54     live555:QCELPAudioRTPSource.obj
 0003:00005e80       ??_R0?AVFrameDescriptor@QCELPDeinterleavingBuffer@@@8 10033e80     live555:QCELPAudioRTPSource.obj
 0003:00005eb8       ??_R0?AVRawQCELPRTPSource@@@8 10033eb8     live555:QCELPAudioRTPSource.obj
 0003:00005ed8       ??_R0?AVH261VideoRTPSource@@@8 10033ed8     live555:H261VideoRTPSource.obj
 0003:00005efc       ??_R0?AVLATMBufferedPacketFactory@@@8 10033efc     live555:MPEG4LATMAudioRTPSource.obj
 0003:00005f24       ??_R0?AVLATMBufferedPacket@@@8 10033f24     live555:MPEG4LATMAudioRTPSource.obj
 0003:00005f48       ??_R0?AVMPEG4LATMAudioRTPSource@@@8 10033f48     live555:MPEG4LATMAudioRTPSource.obj
 0003:00005f70       ??_R0?AVMP3FromADUSource@@@8 10033f70     live555:MP3ADU.obj
 0003:00005f90       ??_R0?AVBasicUDPSource@@@8 10033f90     live555:BasicUDPSource.obj
 0003:00005fb0       ??_R0?AVMPEG1or2VideoRTPSource@@@8 10033fb0     live555:MPEG1or2VideoRTPSource.obj
 0003:00005fd8       ??_R0?AVAC3AudioRTPSource@@@8 10033fd8     live555:AC3AudioRTPSource.obj
 0003:00005ff8       ??_R0?AVMP3ADUdeinterleaver@@@8 10033ff8     live555:MP3ADUinterleaving.obj
 0003:0000601c       ??_R0?AVMP3ADUinterleaverBase@@@8 1003401c     live555:MP3ADUinterleaving.obj
 0003:00006040       ??_R0?AVDeinterleavingFrames@@@8 10034040     live555:MP3ADUinterleaving.obj
 0003:00006064       ??_R0?AVDeinterleavingFrameDescriptor@@@8 10034064     live555:MP3ADUinterleaving.obj
 0003:00006090       ??_R0?AVMPEG4ESVideoRTPSource@@@8 10034090     live555:MPEG4ESVideoRTPSource.obj
 0003:000060b4       ??_R0?AVQTGenericBufferedPacketFactory@@@8 100340b4     live555:QuickTimeGenericRTPSource.obj
 0003:000060e4       ??_R0?AVQTGenericBufferedPacket@@@8 100340e4     live555:QuickTimeGenericRTPSource.obj
 0003:0000610c       ??_R0?AVQuickTimeGenericRTPSource@@@8 1003410c     live555:QuickTimeGenericRTPSource.obj
 0003:00006134       ??_R0?AVMPEG2TransportStreamFramer@@@8 10034134     live555:MPEG2TransportStreamFramer.obj
 0003:00006160       ??_R0?AVJPEGBufferedPacketFactory@@@8 10034160     live555:JPEGVideoRTPSource.obj
 0003:00006188       ??_R0?AVJPEGVideoRTPSource@@@8 10034188     live555:JPEGVideoRTPSource.obj
 0003:000061ac       ??_R0?AVJPEGBufferedPacket@@@8 100341ac     live555:JPEGVideoRTPSource.obj
 0003:000061d0       ??_R0?AVMPEG1or2AudioRTPSource@@@8 100341d0     live555:MPEG1or2AudioRTPSource.obj
 0003:000061f8       ??_R0?AVMPEG4GenericBufferedPacket@@@8 100341f8     live555:MPEG4GenericRTPSource.obj
 0003:00006224       ??_R0?AVMPEG4GenericBufferedPacketFactory@@@8 10034224     live555:MPEG4GenericRTPSource.obj
 0003:00006254       ??_R0?AVMPEG4GenericRTPSource@@@8 10034254     live555:MPEG4GenericRTPSource.obj
 0003:00006278       ??_R0?AVRTCPInstance@@@8   10034278     live555:RTCP.obj
 0003:00006294       ??_R0?AVRTCPMemberDatabase@@@8 10034294     live555:RTCP.obj
 0003:000062b8       ??_R0?AVVP8VideoRTPSource@@@8 100342b8     live555:VP8VideoRTPSource.obj
 0003:000062d8       ??_R0?AVAMRDeinterleaver@@@8 100342d8     live555:AMRAudioRTPSource.obj
 0003:000062f8       ??_R0?AVAMRBufferedPacketFactory@@@8 100342f8     live555:AMRAudioRTPSource.obj
 0003:00006320       ??_R0?AVAMRAudioSource@@@8 10034320     live555:AMRAudioRTPSource.obj
 0003:00006340       ??_R0?AVRawAMRRTPSource@@@8 10034340     live555:AMRAudioRTPSource.obj
 0003:00006360       ??_R0?AVAMRBufferedPacket@@@8 10034360     live555:AMRAudioRTPSource.obj
 0003:00006380       ??_R0?AVAMRDeinterleavingBuffer@@@8 10034380     live555:AMRAudioRTPSource.obj
 0003:000063a8       ??_R0?AVFrameDescriptor@AMRDeinterleavingBuffer@@@8 100343a8     live555:AMRAudioRTPSource.obj
 0003:000063e0       ??_R0?AVdestRecord@@@8     100343e0     live555:Groupsock.obj
 0003:000063fc       ??_R0?AVOutputSocket@@@8   100343fc     live555:Groupsock.obj
 0003:00006418       ??_R0?AVGroupsock@@@8      10034418     live555:Groupsock.obj
 0003:00006430       ??_R0?AVDVVideoRTPSource@@@8 10034430     live555:DVVideoRTPSource.obj
 0003:00006450       ??_R0?AVMP3ADURTPSource@@@8 10034450     live555:MP3ADURTPSource.obj
 0003:00006470       ??_R0?AVADUBufferedPacket@@@8 10034470     live555:MP3ADURTPSource.obj
 0003:00006490       ??_R0?AVADUBufferedPacketFactory@@@8 10034490     live555:MP3ADURTPSource.obj
 0003:000064b8       ??_R0?AVHandlerDescriptor@@@8 100344b8     live555:BasicTaskScheduler0.obj
 0003:000064d8       ??_R0?AVAlarmHandler@@@8   100344d8     live555:BasicTaskScheduler0.obj
 0003:000064f4       ??_R0?AVHandlerSet@@@8     100344f4     live555:BasicTaskScheduler0.obj
 0003:00006510       ??_R0?AVHandlerIterator@@@8 10034510     live555:BasicTaskScheduler0.obj
 0003:00006530       ??_R0?AVSocketDescriptor@@@8 10034530     live555:RTPInterface.obj
 0003:00006550       ??_R0?AVRTPInterface@@@8   10034550     live555:RTPInterface.obj
 0003:0000656c       ??_R0?AVtcpStreamRecord@@@8 1003456c     live555:RTPInterface.obj
 0003:0000658c       ??_R0?AVReorderingPacketBuffer@@@8 1003458c     live555:MultiFramedRTPSource.obj
 0003:000065b4       ??_R0?AVRTPTransmissionStats@@@8 100345b4     live555:RTPSink.obj
 0003:000066a8       ?__type_info_root_node@@3U__type_info_node@@A 100346a8     msvcrt:tncleanup.obj
 0003:000069d0       ?Count@AllDomains@<CrtImplementationDetails>@@2HA 100349d0     msvcmrt:mstartup.obj
 0003:000069d4       ?Entered@DefaultDomain@<CrtImplementationDetails>@@2_NA 100349d4     msvcmrt:mstartup.obj
 0003:000069d5       ?InitializedNative@DefaultDomain@<CrtImplementationDetails>@@2_NA 100349d5     msvcmrt:mstartup.obj
 0003:000069d6       ?InitializedNativeFromCCTOR@DefaultDomain@<CrtImplementationDetails>@@2_NA 100349d6     msvcmrt:mstartup.obj
 0003:000069d7       ?InitializedPerProcess@DefaultDomain@<CrtImplementationDetails>@@2_NA 100349d7     msvcmrt:mstartup.obj
 0003:00006b20       ?DefaultUsageEnvironment@NetInterface@@2PAVUsageEnvironment@@A 10034b20     live555:NetInterface.obj
 0003:00006b24       ?tokenCounter@DelayQueueEntry@@0HA 10034b24     live555:DelayQueue.obj
 0003:00006b28       ?ReceivingInterfaceAddr@@3IA 10034b28     live555:GroupsockHelper.obj
 0003:00006b2c       ?SendingInterfaceAddr@@3IA 10034b2c     live555:GroupsockHelper.obj
 0003:00006b40       ?i_slen2@@3PAIA            10034b40     live555:MP3Internals.obj
 0003:00006f40       ?n_slen2@@3PAIA            10034f40     live555:MP3Internals.obj
 0003:00007754       ?DELAY_ZERO@@3VDelayInterval@@B 10035754     live555:DelayQueue.obj
 0003:000077fc       ?statsRelayedIncoming@Groupsock@@2VNetInterfaceTrafficStats@@A 100357fc     live555:Groupsock.obj
 0003:00007804       ?statsRelayedOutgoing@Groupsock@@2VNetInterfaceTrafficStats@@A 10035804     live555:Groupsock.obj
 0003:0000780c       ?statsIncoming@Groupsock@@2VNetInterfaceTrafficStats@@A 1003580c     live555:Groupsock.obj
 0003:00007814       ?statsOutgoing@Groupsock@@2VNetInterfaceTrafficStats@@A 10035814     live555:Groupsock.obj
 0003:0000792c       ?id@?$num_put@_WV?$back_insert_iterator@V?$basic_string@_WU?$char_traits@_W@std@@V?$allocator@_W@2@@std@@@std@@@std@@2V0locale@2@A 1003592c     live555:NetInterface.obj
 0003:00007930       ?id@?$num_put@DV?$back_insert_iterator@V?$basic_string@DU?$char_traits@D@std@@V?$allocator@D@2@@std@@@std@@@std@@2V0locale@2@A 10035930     live555:NetInterface.obj
 0003:00007950       ___native_startup_lock     10035950     <common>
 0003:00007954       ___native_startup_state    10035954     <common>
 0003:00007958       ___onexitend               10035958     <common>
 0003:0000795c       ___onexitbegin             1003595c     <common>
 0003:00007960       ___dyn_tls_init_callback   10035960     <common>

 entry point at        0001:00018384

 Static symbols

 0001:00000000       ??__E?_Generic_object@?$_Error_objects@H@std@@2V_Generic_error_category@2@A@@YAXXZ 10001000 f   * CIL library *:* CIL module *
 0001:0000000c       ??__E?_Iostream_object@?$_Error_objects@H@std@@2V_Iostream_error_category@2@A@@YAXXZ 1000100c f   * CIL library *:* CIL module *
 0001:00000018       ??__E?_System_object@?$_Error_objects@H@std@@2V_System_error_category@2@A@@YAXXZ 10001018 f   * CIL library *:* CIL module *
 0001:00000024       ??__EDELAY_MINUTE@@YAXXZ   10001024 f   * CIL library *:* CIL module *
 0001:00000055       ??__EDELAY_HOUR@@YAXXZ     10001055 f   * CIL library *:* CIL module *
 0001:00000086       ??__EDELAY_DAY@@YAXXZ      10001086 f   * CIL library *:* CIL module *
 0001:000000b7       ??__EDELAY_MINUTE@@YAXXZ   100010b7 f   * CIL library *:* CIL module *
 0001:000000e8       ??__EDELAY_HOUR@@YAXXZ     100010e8 f   * CIL library *:* CIL module *
 0001:00000119       ??__EDELAY_DAY@@YAXXZ      10001119 f   * CIL library *:* CIL module *
 0001:0000014a       ??__EDELAY_MINUTE@@YAXXZ   1000114a f   * CIL library *:* CIL module *
 0001:0000017b       ??__EDELAY_HOUR@@YAXXZ     1000117b f   * CIL library *:* CIL module *
 0001:000001ac       ??__EDELAY_DAY@@YAXXZ      100011ac f   * CIL library *:* CIL module *
 0001:000001dd       ??__EDELAY_MINUTE@@YAXXZ   100011dd f   * CIL library *:* CIL module *
 0001:0000020e       ??__EDELAY_HOUR@@YAXXZ     1000120e f   * CIL library *:* CIL module *
 0001:0000023f       ??__EDELAY_DAY@@YAXXZ      1000123f f   * CIL library *:* CIL module *
 0001:00000270       ??__EDELAY_MINUTE@@YAXXZ   10001270 f   * CIL library *:* CIL module *
 0001:000002a1       ??__EDELAY_HOUR@@YAXXZ     100012a1 f   * CIL library *:* CIL module *
 0001:000002d2       ??__EDELAY_DAY@@YAXXZ      100012d2 f   * CIL library *:* CIL module *
 0001:00000303       ??__EDELAY_MINUTE@@YAXXZ   10001303 f   * CIL library *:* CIL module *
 0001:00000334       ??__EDELAY_HOUR@@YAXXZ     10001334 f   * CIL library *:* CIL module *
 0001:00000365       ??__EDELAY_DAY@@YAXXZ      10001365 f   * CIL library *:* CIL module *
 0001:00000396       ??__EDELAY_MINUTE@@YAXXZ   10001396 f   * CIL library *:* CIL module *
 0001:000003c7       ??__EDELAY_HOUR@@YAXXZ     100013c7 f   * CIL library *:* CIL module *
 0001:000003f8       ??__EDELAY_DAY@@YAXXZ      100013f8 f   * CIL library *:* CIL module *
 0001:00000a63       __catch$?_Copy@?$basic_string@DU?$char_traits@D@std@@V?$allocator@D@2@@std@@QAEXII@Z$0 10001a63 f i * CIL library *:* CIL module *
 0001:00000adb       __catch$?_Copy@?$basic_string@DU?$char_traits@D@std@@V?$allocator@D@2@@std@@QAEXII@Z$1 10001adb f i * CIL library *:* CIL module *
 0001:00001682       ?increaseBufferTo@@YAIAAVUsageEnvironment@@HHI@Z 10002682 f   * CIL library *:* CIL module *
 0001:000017d9       ?getSourcePort0@@YA_NHAAG@Z 100027d9 f   * CIL library *:* CIL module *
 0001:000018c4       ?badAddressForUs@@YA_NI@Z  100028c4 f   * CIL library *:* CIL module *
 0001:000022ea       ??R<lambda_2f111f34529ba06998f18f1e2734b49b>@@QBE?AV?$shared_ptr@VMetadataCollector@onvifmp@@@std@@PAVVirtualSink@onvifmp@@@Z 100032ea f   * CIL library *:* CIL module *
 0001:0000244d       ??1<lambda_10aef3f9c20489329aef1d0346f46932>@@QAE@XZ 1000344d f i * CIL library *:* CIL module *
 0001:00002949       _Encode                    10003949 f   * CIL library *:* CIL module *
 0001:0000297f       _MD5Transform              1000397f f   * CIL library *:* CIL module *
 0001:000031dd       __catch$?CreateNew@VirtualSink@onvifmp@@SAPAV12@AAVUsageEnvironment@@I@Z$0 100041dd f i * CIL library *:* CIL module *
 0001:00003357       ?AfterGettingFrame@proxy@?4??continuePlaying@VirtualSink@onvifmp@@MAE_NXZ@SAXPAXIIUtimeval@@I@Z 10004357 f   * CIL library *:* CIL module *
 0001:000033e7       __catch$?CreateNew@H264VirtualSink@onvifmp@@SAPAV12@AAVUsageEnvironment@@I@Z$0 100043e7 f i * CIL library *:* CIL module *
 0001:0000353c       __catch$?Init@VideoDecoder@onvifmp@@QAE_NPAVVirtualSink@2@PAUAVCodec@@PBD@Z$0 1000453c f i * CIL library *:* CIL module *
 0001:00003711       ??R<lambda_6f17768ec1e816bdad31c3395b38e95e>@@QBE?AV?$shared_ptr@VVideoDecoder@onvifmp@@@std@@PAVVirtualSink@onvifmp@@@Z 10004711 f   * CIL library *:* CIL module *
 0001:0000389e       ??R<lambda_10aef3f9c20489329aef1d0346f46932>@@QBE?AV?$shared_ptr@VIVideoRenderer@onvifmp@@@std@@PAVVideoDecoder@onvifmp@@@Z 1000489e f   * CIL library *:* CIL module *
 0001:00003a16       ?Dispose@PlaybackSession@?4??Run@Live555@onvifmp@@QAEXPAVMediaStreamInfo@4@PAVIPlaybackController@4@@Z@UAEXXZ 10004a16 f   * CIL library *:* CIL module *
 0001:00003aea       ??R<lambda_de1d15fe10d4d9865796d6851c4d8d4d>@@QBE?AV?$shared_ptr@VIFrameProcessor@onvifmp@@@std@@PAVVirtualSink@onvifmp@@@Z 10004aea f   * CIL library *:* CIL module *
 0001:00003bad       ??1<lambda_de1d15fe10d4d9865796d6851c4d8d4d>@@QAE@XZ 10004bad f   * CIL library *:* CIL module *
 0001:00003c2c       ??R<lambda_02633da78dd085cd30a2d2935e5e427d>@@QBE?AV?$shared_ptr@VIFrameProcessor@onvifmp@@@std@@PAVVirtualSink@onvifmp@@@Z 10004c2c f   * CIL library *:* CIL module *
 0001:00003cd4       ??1<lambda_02633da78dd085cd30a2d2935e5e427d>@@QAE@XZ 10004cd4 f   * CIL library *:* CIL module *
 0001:00005002       ?parseCLine@@YAPADPBD@Z    10006002 f   * CIL library *:* CIL module *
 0001:000050db       ?parseRangeAttribute@@YA_NPBDAAPAD1@Z 100060db f   * CIL library *:* CIL module *
 0001:000051cf       ?parseSourceFilterAttribute@@YA_NPBDAAUin_addr@@@Z 100061cf f   * CIL library *:* CIL module *
 0001:0000539c       $LN37                      1000639c     * CIL library *:* CIL module *
 0001:00008899       ?createSessionString@@YAPADPBD@Z 10009899 f   * CIL library *:* CIL module *
 0001:000088de       ?createScaleString@@YAPADMM@Z 100098de f   * CIL library *:* CIL module *
 0001:00008984       ?createRangeString@@YAPADNNPBD0@Z 10009984 f   * CIL library *:* CIL module *
 0001:0000a386       ?getLine@@YAPADPAD@Z       1000b386 f   * CIL library *:* CIL module *
 0001:0000e658       ?createHuffmanHeader@@YAXAAPAEPBEH1HHH@Z 1000f658 f   * CIL library *:* CIL module *
 0001:0000e6ae       ?createJPEGHeader@@YAXPAEIIIPBEII@Z 1000f6ae f   * CIL library *:* CIL module *
 0001:0000e86b       ?makeDefaultQtables@@YAXPAEI@Z 1000f86b f   * CIL library *:* CIL module *
 0001:0000f11a       ?dTimeNow@@YANXZ           1001011a f   * CIL library *:* CIL module *
 0001:00010a06       ?unpackBandwidthEfficientData@@YAXPAVBufferedPacket@@_N@Z 10011a06 f   * CIL library *:* CIL module *
 0001:00011db1       ?socketHashTable@@YAPAVHashTable@@AAVUsageEnvironment@@_N@Z 10012db1 f   * CIL library *:* CIL module *
 0001:00011dd5       ?lookupSocketDescriptor@@YAPAVSocketDescriptor@@AAVUsageEnvironment@@H_N@Z 10012dd5 f   * CIL library *:* CIL module *
 0001:00011f8f       ?deregisterSocket@@YAXAAVUsageEnvironment@@HE@Z 10012f8f f   * CIL library *:* CIL module *
 0001:00012a34       ?initBase64DecodeTable@@YAXXZ 10013a34 f   * CIL library *:* CIL module *
 0001:00013c2c       ?getSideInfo1@@YAXAAVMP3FrameParams@@AAUMP3SideInfo@@HHJH@Z 10014c2c f   * CIL library *:* CIL module *
 0001:00013e13       ?getSideInfo2@@YAXAAVMP3FrameParams@@AAUMP3SideInfo@@HHJH@Z 10014e13 f   * CIL library *:* CIL module *
 0001:00013ffb       ?putSideInfo1@@YAXAAVBitVector@@ABUMP3SideInfo@@_N@Z 10014ffb f   * CIL library *:* CIL module *
 0001:0001417b       ?putSideInfo2@@YAXAAVBitVector@@ABUMP3SideInfo@@_N@Z 1001517b f   * CIL library *:* CIL module *
 0001:000142bb       ?PutMP3SideInfoIntoFrame@@YAXABUMP3SideInfo@@ABVMP3FrameParams@@PAE@Z 100152bb f   * CIL library *:* CIL module *
 0001:00014d86       __catch$?MetadataCallback@Live555@player@odm@@$$FQ$AAMXPAXH_NH@Z$0 10015d86 f i libapi.obj
 0001:0001581a       __catch$?Play@Live555@player@odm@@$$FQ$AAMXP$AAVMediaStreamInfo@23@P$AAUIPlaybackController@23@@Z$0 1001681a f i libapi.obj
 0001:0001593c       __catch$??0Live555@player@odm@@$$FQ$AAM@P$AAVVideoBuffer@12@P$AAUIMetadataReceiver@12@@Z$0 1001693c f i libapi.obj
 0001:0001593c       $LN6                       1001693c f i libapi.obj
 0001:00015950       $LN34                      10016950 f i libapi.obj
 0001:0001596e       __catch$??0Live555@player@odm@@$$FQ$AAM@P$AAVVideoBuffer@12@P$AAUIMetadataReceiver@12@@Z$1 1001696e f i libapi.obj
 0001:0001596e       $LN10                      1001696e f i libapi.obj
 0001:0001597d       $LN37                      1001697d f i libapi.obj
 0001:00015987       __catch$??0Live555@player@odm@@$$FQ$AAM@P$AAVVideoBuffer@12@P$AAUIMetadataReceiver@12@@Z$2 10016987 f i libapi.obj
 0001:00015ec0       _pre_c_init                10016ec0 f   msvcrt:crtdll.obj
 0001:00016126       ___DllMainCRTStartup       10017126 f   msvcrt:crtdll.obj
 0001:000166a0       $$000000                   100176a0     msvcrt:sehprolg4.obj
 0001:00016b93       __catch$?AddHandler@ModuleUninitializer@<CrtImplementationDetails>@@$$FQ$AAMXP$AAVEventHandler@System@@@Z$0 10017b93 f i msvcmrt:mstartup.obj
 0001:00016c09       __catch$?SingletonDomainUnload@ModuleUninitializer@<CrtImplementationDetails>@@$$FA$AAMXP$AAVObject@System@@P$AAVEventArgs@4@@Z$0 10017c09 f i msvcmrt:mstartup.obj
 0001:00016c1e       __catch$?SingletonDomainUnload@ModuleUninitializer@<CrtImplementationDetails>@@$$FA$AAMXP$AAVObject@System@@P$AAVEventArgs@4@@Z$2 10017c1e f i msvcmrt:mstartup.obj
 0001:00016d01       __catch$?__get_default_appdomain@@$$FYAJPAPAUIUnknown@@@Z$0 10017d01 f i msvcmrt:mstartup.obj
 0001:00016d94       __catch$?GetDefaultDomain@<CrtImplementationDetails>@@$$FYMP$AAVAppDomain@System@@XZ$0 10017d94 f i msvcmrt:mstartup.obj
 0001:00016e1c       __catch$?DoCallBackInDefaultDomain@<CrtImplementationDetails>@@$$FYAXP6GJPAX@Z0@Z$0 10017e1c f i msvcmrt:mstartup.obj
 0001:00017351       __catch$?_Initialize@LanguageSupport@<CrtImplementationDetails>@@$$FAAEXXZ$0 10018351 f i msvcmrt:mstartup.obj
 0001:000173c8       __catch$?_Initialize@LanguageSupport@<CrtImplementationDetails>@@$$FAAEXXZ$2 100183c8 f i msvcmrt:mstartup.obj
 0001:0001745e       __catch$?Cleanup@LanguageSupport@<CrtImplementationDetails>@@$$FAAMXP$AAVException@System@@@Z$0 1001845e f i msvcmrt:mstartup.obj
 0001:00017468       __catch$?Cleanup@LanguageSupport@<CrtImplementationDetails>@@$$FAAMXP$AAVException@System@@@Z$1 10018468 f i msvcmrt:mstartup.obj
 0001:000174fa       __catch$?Initialize@LanguageSupport@<CrtImplementationDetails>@@$$FQAEXXZ$0 100184fa f i msvcmrt:mstartup.obj
 0001:00017510       __catch$?Initialize@LanguageSupport@<CrtImplementationDetails>@@$$FQAEXXZ$2 10018510 f i msvcmrt:mstartup.obj
 0001:00017529       __catch$?Initialize@LanguageSupport@<CrtImplementationDetails>@@$$FQAEXXZ$3 10018529 f i msvcmrt:mstartup.obj
 0001:00017d00       $$000000                   10018d00     msvcrt:lldiv.obj
 0001:00017db0       $$000000                   10018db0     msvcrt:lldvrm.obj
 0001:00017e90       $$000000                   10018e90     msvcrt:llmul.obj
 0001:00017ed0       $$000000                   10018ed0     msvcrt:llrem.obj
 0001:00017fa0       $$000000                   10018fa0     msvcrt:ftol3.obj
 0001:0001838a       __unwindfunclet$??0Socket@@IAE@AAVUsageEnvironment@@VPort@@@Z$0 1001938a f   * CIL library *:* CIL module *
 0001:00018392       __ehhandler$??0Socket@@IAE@AAVUsageEnvironment@@VPort@@@Z 10019392 f   * CIL library *:* CIL module *
 0001:000183ad       __ehhandler$?_Copy@?$basic_string@DU?$char_traits@D@std@@V?$allocator@D@2@@std@@QAEXII@Z 100193ad f   * CIL library *:* CIL module *
 0001:000183c8       __unwindfunclet$??1DelayQueue@@UAE@XZ$0 100193c8 f   * CIL library *:* CIL module *
 0001:000183d0       __ehhandler$??1DelayQueue@@UAE@XZ 100193d0 f   * CIL library *:* CIL module *
 0001:000183eb       __unwindfunclet$??0NetAddressList@@QAE@PBD@Z$0 100193eb f   * CIL library *:* CIL module *
 0001:000183f5       __unwindfunclet$??0NetAddressList@@QAE@PBD@Z$1 100193f5 f   * CIL library *:* CIL module *
 0001:000183ff       __ehhandler$??0NetAddressList@@QAE@PBD@Z 100193ff f   * CIL library *:* CIL module *
 0001:0001841a       __unwindfunclet$?Create@VideoDecoder@onvifmp@@SA?AV?$function@$$A6A?AV?$shared_ptr@VVideoDecoder@onvifmp@@@std@@PAVVirtualSink@onvifmp@@@Z@std@@W4CodecID@@PBD@Z$1 1001941a f   * CIL library *:* CIL module *
 0001:0001841a       __unwindfunclet$?Create@MetadataCollector@onvifmp@@SA?AV?$function@$$A6A?AV?$shared_ptr@VMetadataCollector@onvifmp@@@std@@PAVVirtualSink@onvifmp@@@Z@std@@XZ$1 1001941a f   * CIL library *:* CIL module *
 0001:00018422       __ehhandler$?Create@VideoDecoder@onvifmp@@SA?AV?$function@$$A6A?AV?$shared_ptr@VVideoDecoder@onvifmp@@@std@@PAVVirtualSink@onvifmp@@@Z@std@@W4CodecID@@PBD@Z 10019422 f   * CIL library *:* CIL module *
 0001:00018422       __ehhandler$?Create@MetadataCollector@onvifmp@@SA?AV?$function@$$A6A?AV?$shared_ptr@VMetadataCollector@onvifmp@@@std@@PAVVirtualSink@onvifmp@@@Z@std@@XZ 10019422 f   * CIL library *:* CIL module *
 0001:0001843d       __unwindfunclet$??$make_shared@VMetadataCollector@onvifmp@@$$$V@std@@YA?AV?$shared_ptr@VMetadataCollector@onvifmp@@@0@XZ$0 1001943d f   * CIL library *:* CIL module *
 0001:00018447       __unwindfunclet$??$make_shared@VMetadataCollector@onvifmp@@$$$V@std@@YA?AV?$shared_ptr@VMetadataCollector@onvifmp@@@0@XZ$2 10019447 f   * CIL library *:* CIL module *
 0001:0001844f       __unwindfunclet$??$make_shared@VMetadataCollector@onvifmp@@$$$V@std@@YA?AV?$shared_ptr@VMetadataCollector@onvifmp@@@0@XZ$3 1001944f f   * CIL library *:* CIL module *
 0001:00018454       __unwindfunclet$??$make_shared@VMetadataCollector@onvifmp@@$$$V@std@@YA?AV?$shared_ptr@VMetadataCollector@onvifmp@@@0@XZ$4 10019454 f   * CIL library *:* CIL module *
 0001:0001845f       __unwindfunclet$??$make_shared@VMetadataCollector@onvifmp@@$$$V@std@@YA?AV?$shared_ptr@VMetadataCollector@onvifmp@@@0@XZ$1 1001945f f   * CIL library *:* CIL module *
 0001:00018478       __ehhandler$??$make_shared@VMetadataCollector@onvifmp@@$$$V@std@@YA?AV?$shared_ptr@VMetadataCollector@onvifmp@@@0@XZ 10019478 f   * CIL library *:* CIL module *
 0001:00018493       __unwindfunclet$?CreateNew@VirtualSink@onvifmp@@SAPAV12@AAVUsageEnvironment@@I@Z$2 10019493 f   * CIL library *:* CIL module *
 0001:0001849d       __ehhandler$?CreateNew@VirtualSink@onvifmp@@SAPAV12@AAVUsageEnvironment@@I@Z 1001949d f   * CIL library *:* CIL module *
 0001:000184b8       __unwindfunclet$?AddFrameProcessor@VirtualSink@onvifmp@@QAEXV?$function@$$A6A?AV?$shared_ptr@VIFrameProcessor@onvifmp@@@std@@PAVVirtualSink@onvifmp@@@Z@std@@@Z$0 100194b8 f   * CIL library *:* CIL module *
 0001:000184c0       __ehhandler$?AddFrameProcessor@VirtualSink@onvifmp@@QAEXV?$function@$$A6A?AV?$shared_ptr@VIFrameProcessor@onvifmp@@@std@@PAVVirtualSink@onvifmp@@@Z@std@@@Z 100194c0 f   * CIL library *:* CIL module *
 0001:000184db       __unwindfunclet$??0VirtualSink@onvifmp@@IAE@AAVUsageEnvironment@@I@Z$0 100194db f   * CIL library *:* CIL module *
 0001:000184e3       __unwindfunclet$??0VirtualSink@onvifmp@@IAE@AAVUsageEnvironment@@I@Z$1 100194e3 f   * CIL library *:* CIL module *
 0001:000184ee       __ehhandler$??0VirtualSink@onvifmp@@IAE@AAVUsageEnvironment@@I@Z 100194ee f   * CIL library *:* CIL module *
 0001:00018509       __unwindfunclet$?CreateNew@H264VirtualSink@onvifmp@@SAPAV12@AAVUsageEnvironment@@I@Z$2 10019509 f   * CIL library *:* CIL module *
 0001:00018513       __ehhandler$?CreateNew@H264VirtualSink@onvifmp@@SAPAV12@AAVUsageEnvironment@@I@Z 10019513 f   * CIL library *:* CIL module *
 0001:0001852e       __ehhandler$?Init@VideoDecoder@onvifmp@@QAE_NPAVVirtualSink@2@PAUAVCodec@@PBD@Z 1001952e f   * CIL library *:* CIL module *
 0001:00018549       __unwindfunclet$??R<lambda_6f17768ec1e816bdad31c3395b38e95e>@@QBE?AV?$shared_ptr@VVideoDecoder@onvifmp@@@std@@PAVVirtualSink@onvifmp@@@Z$1 10019549 f   * CIL library *:* CIL module *
 0001:00018551       __ehhandler$??R<lambda_6f17768ec1e816bdad31c3395b38e95e>@@QBE?AV?$shared_ptr@VVideoDecoder@onvifmp@@@std@@PAVVirtualSink@onvifmp@@@Z 10019551 f   * CIL library *:* CIL module *
 0001:0001856c       __unwindfunclet$?Create@VideoRenderer@onvifmp@@SA?AV?$function@$$A6A?AV?$shared_ptr@VIVideoRenderer@onvifmp@@@std@@PAVVideoDecoder@onvifmp@@@Z@std@@V?$shared_ptr@VVideoBuffer@onvifmp@@@4@@Z$0 1001956c f   * CIL library *:* CIL module *
 0001:00018574       __unwindfunclet$?Create@VideoRenderer@onvifmp@@SA?AV?$function@$$A6A?AV?$shared_ptr@VIVideoRenderer@onvifmp@@@std@@PAVVideoDecoder@onvifmp@@@Z@std@@V?$shared_ptr@VVideoBuffer@onvifmp@@@4@@Z$1 10019574 f   * CIL library *:* CIL module *
 0001:0001857c       __unwindfunclet$?Create@VideoRenderer@onvifmp@@SA?AV?$function@$$A6A?AV?$shared_ptr@VIVideoRenderer@onvifmp@@@std@@PAVVideoDecoder@onvifmp@@@Z@std@@V?$shared_ptr@VVideoBuffer@onvifmp@@@4@@Z$3 1001957c f   * CIL library *:* CIL module *
 0001:00018584       __ehhandler$?Create@VideoRenderer@onvifmp@@SA?AV?$function@$$A6A?AV?$shared_ptr@VIVideoRenderer@onvifmp@@@std@@PAVVideoDecoder@onvifmp@@@Z@std@@V?$shared_ptr@VVideoBuffer@onvifmp@@@4@@Z 10019584 f   * CIL library *:* CIL module *
 0001:0001859f       __unwindfunclet$?SetMetadataOutput@Live555@onvifmp@@QAEXV?$function@$$A6AXPAXH_NH@Z@std@@@Z$0 1001959f f   * CIL library *:* CIL module *
 0001:000185a7       __ehhandler$?SetMetadataOutput@Live555@onvifmp@@QAEXV?$function@$$A6AXPAXH_NH@Z@std@@@Z 100195a7 f   * CIL library *:* CIL module *
 0001:000185c2       __unwindfunclet$?InitVideoSubsession@Live555@onvifmp@@IAE?AV?$function@$$A6A?AV?$shared_ptr@VIFrameProcessor@onvifmp@@@std@@PAVVirtualSink@onvifmp@@@Z@std@@W4CodecID@@PBD@Z$1 100195c2 f   * CIL library *:* CIL module *
 0001:000185ca       __unwindfunclet$?InitVideoSubsession@Live555@onvifmp@@IAE?AV?$function@$$A6A?AV?$shared_ptr@VIFrameProcessor@onvifmp@@@std@@PAVVirtualSink@onvifmp@@@Z@std@@W4CodecID@@PBD@Z$3 100195ca f   * CIL library *:* CIL module *
 0001:000185d2       __unwindfunclet$?InitVideoSubsession@Live555@onvifmp@@IAE?AV?$function@$$A6A?AV?$shared_ptr@VIFrameProcessor@onvifmp@@@std@@PAVVirtualSink@onvifmp@@@Z@std@@W4CodecID@@PBD@Z$5 100195d2 f   * CIL library *:* CIL module *
 0001:000185da       __unwindfunclet$?InitVideoSubsession@Live555@onvifmp@@IAE?AV?$function@$$A6A?AV?$shared_ptr@VIFrameProcessor@onvifmp@@@std@@PAVVirtualSink@onvifmp@@@Z@std@@W4CodecID@@PBD@Z$4 100195da f   * CIL library *:* CIL module *
 0001:000185e2       __unwindfunclet$?InitVideoSubsession@Live555@onvifmp@@IAE?AV?$function@$$A6A?AV?$shared_ptr@VIFrameProcessor@onvifmp@@@std@@PAVVirtualSink@onvifmp@@@Z@std@@W4CodecID@@PBD@Z$7 100195e2 f   * CIL library *:* CIL module *
 0001:000185ea       __unwindfunclet$?InitVideoSubsession@Live555@onvifmp@@IAE?AV?$function@$$A6A?AV?$shared_ptr@VIFrameProcessor@onvifmp@@@std@@PAVVirtualSink@onvifmp@@@Z@std@@W4CodecID@@PBD@Z$9 100195ea f   * CIL library *:* CIL module *
 0001:000185ef       __ehhandler$?InitVideoSubsession@Live555@onvifmp@@IAE?AV?$function@$$A6A?AV?$shared_ptr@VIFrameProcessor@onvifmp@@@std@@PAVVirtualSink@onvifmp@@@Z@std@@W4CodecID@@PBD@Z 100195ef f   * CIL library *:* CIL module *
 0001:00018614       __unwindfunclet$??R<lambda_de1d15fe10d4d9865796d6851c4d8d4d>@@QBE?AV?$shared_ptr@VIFrameProcessor@onvifmp@@@std@@PAVVirtualSink@onvifmp@@@Z$0 10019614 f   * CIL library *:* CIL module *
 0001:0001861c       __unwindfunclet$??R<lambda_de1d15fe10d4d9865796d6851c4d8d4d>@@QBE?AV?$shared_ptr@VIFrameProcessor@onvifmp@@@std@@PAVVirtualSink@onvifmp@@@Z$3 1001961c f   * CIL library *:* CIL module *
 0001:00018624       __ehhandler$??R<lambda_de1d15fe10d4d9865796d6851c4d8d4d>@@QBE?AV?$shared_ptr@VIFrameProcessor@onvifmp@@@std@@PAVVirtualSink@onvifmp@@@Z 10019624 f   * CIL library *:* CIL module *
 0001:0001863f       __unwindfunclet$?InitMetadataSubsession@Live555@onvifmp@@IAE?AV?$function@$$A6A?AV?$shared_ptr@VIFrameProcessor@onvifmp@@@std@@PAVVirtualSink@onvifmp@@@Z@std@@PBD@Z$1 1001963f f   * CIL library *:* CIL module *
 0001:00018647       __unwindfunclet$?InitMetadataSubsession@Live555@onvifmp@@IAE?AV?$function@$$A6A?AV?$shared_ptr@VIFrameProcessor@onvifmp@@@std@@PAVVirtualSink@onvifmp@@@Z@std@@PBD@Z$2 10019647 f   * CIL library *:* CIL module *
 0001:0001864f       __ehhandler$?InitMetadataSubsession@Live555@onvifmp@@IAE?AV?$function@$$A6A?AV?$shared_ptr@VIFrameProcessor@onvifmp@@@std@@PAVVirtualSink@onvifmp@@@Z@std@@PBD@Z 1001964f f   * CIL library *:* CIL module *
 0001:00018674       __unwindfunclet$??R<lambda_02633da78dd085cd30a2d2935e5e427d>@@QBE?AV?$shared_ptr@VIFrameProcessor@onvifmp@@@std@@PAVVirtualSink@onvifmp@@@Z$0 10019674 f   * CIL library *:* CIL module *
 0001:0001867c       __unwindfunclet$??R<lambda_02633da78dd085cd30a2d2935e5e427d>@@QBE?AV?$shared_ptr@VIFrameProcessor@onvifmp@@@std@@PAVVirtualSink@onvifmp@@@Z$3 1001967c f   * CIL library *:* CIL module *
 0001:00018684       __unwindfunclet$??R<lambda_02633da78dd085cd30a2d2935e5e427d>@@QBE?AV?$shared_ptr@VIFrameProcessor@onvifmp@@@std@@PAVVirtualSink@onvifmp@@@Z$4 10019684 f   * CIL library *:* CIL module *
 0001:0001868c       __ehhandler$??R<lambda_02633da78dd085cd30a2d2935e5e427d>@@QBE?AV?$shared_ptr@VIFrameProcessor@onvifmp@@@std@@PAVVirtualSink@onvifmp@@@Z 1001968c f   * CIL library *:* CIL module *
 0001:000186a7       __unwindfunclet$?SetupSubsession@Live555@onvifmp@@IAEXPAVMediaStreamInfo@2@PAVMediaSubsession@@@Z$0 100196a7 f   * CIL library *:* CIL module *
 0001:000186af       __unwindfunclet$?SetupSubsession@Live555@onvifmp@@IAEXPAVMediaStreamInfo@2@PAVMediaSubsession@@@Z$2 100196af f   * CIL library *:* CIL module *
 0001:000186b7       __ehhandler$?SetupSubsession@Live555@onvifmp@@IAEXPAVMediaStreamInfo@2@PAVMediaSubsession@@@Z 100196b7 f   * CIL library *:* CIL module *
 0001:000186dc       __unwindfunclet$?Init@Live555@onvifmp@@IAE_NPAVMediaStreamInfo@2@@Z$2 100196dc f   * CIL library *:* CIL module *
 0001:000186e6       __unwindfunclet$?Init@Live555@onvifmp@@IAE_NPAVMediaStreamInfo@2@@Z$3 100196e6 f   * CIL library *:* CIL module *
 0001:000186f0       __unwindfunclet$?Init@Live555@onvifmp@@IAE_NPAVMediaStreamInfo@2@@Z$0 100196f0 f   * CIL library *:* CIL module *
 0001:000186f8       __unwindfunclet$?Init@Live555@onvifmp@@IAE_NPAVMediaStreamInfo@2@@Z$4 100196f8 f   * CIL library *:* CIL module *
 0001:00018702       __unwindfunclet$?Init@Live555@onvifmp@@IAE_NPAVMediaStreamInfo@2@@Z$1 10019702 f   * CIL library *:* CIL module *
 0001:0001870a       __ehhandler$?Init@Live555@onvifmp@@IAE_NPAVMediaStreamInfo@2@@Z 1001970a f   * CIL library *:* CIL module *
 0001:00018725       __unwindfunclet$?Cleanup@Live555@onvifmp@@IAEXXZ$0 10019725 f   * CIL library *:* CIL module *
 0001:0001872d       __ehhandler$?Cleanup@Live555@onvifmp@@IAEXXZ 1001972d f   * CIL library *:* CIL module *
 0001:00018748       __unwindfunclet$??0?$function@$$A6A?AV?$shared_ptr@VIVideoRenderer@onvifmp@@@std@@PAVVideoDecoder@onvifmp@@@Z@std@@QAE@ABV01@@Z$0 10019748 f   * CIL library *:* CIL module *
 0001:00018748       __unwindfunclet$??0?$function@$$A6A?AV?$shared_ptr@VVideoDecoder@onvifmp@@@std@@PAVVirtualSink@onvifmp@@@Z@std@@QAE@ABV01@@Z$0 10019748 f   * CIL library *:* CIL module *
 0001:00018748       __unwindfunclet$??0?$function@$$A6A?AV?$shared_ptr@VMetadataCollector@onvifmp@@@std@@PAVVirtualSink@onvifmp@@@Z@std@@QAE@ABV01@@Z$0 10019748 f   * CIL library *:* CIL module *
 0001:00018750       __ehhandler$??0?$function@$$A6A?AV?$shared_ptr@VIVideoRenderer@onvifmp@@@std@@PAVVideoDecoder@onvifmp@@@Z@std@@QAE@ABV01@@Z 10019750 f   * CIL library *:* CIL module *
 0001:00018750       __ehhandler$??0?$function@$$A6A?AV?$shared_ptr@VVideoDecoder@onvifmp@@@std@@PAVVirtualSink@onvifmp@@@Z@std@@QAE@ABV01@@Z 10019750 f   * CIL library *:* CIL module *
 0001:00018750       __ehhandler$??0?$function@$$A6A?AV?$shared_ptr@VMetadataCollector@onvifmp@@@std@@PAVVirtualSink@onvifmp@@@Z@std@@QAE@ABV01@@Z 10019750 f   * CIL library *:* CIL module *
 0001:0001876b       __unwindfunclet$??$make_shared@VVideoDecoder@onvifmp@@$$$V@std@@YA?AV?$shared_ptr@VVideoDecoder@onvifmp@@@0@XZ$1 1001976b f   * CIL library *:* CIL module *
 0001:0001876b       __unwindfunclet$??$make_shared@VVideoRenderer@onvifmp@@ABV?$shared_ptr@VVideoBuffer@onvifmp@@@std@@@std@@YA?AV?$shared_ptr@VVideoRenderer@onvifmp@@@0@ABV?$shared_ptr@VVideoBuffer@onvifmp@@@0@@Z$1 1001976b f   * CIL library *:* CIL module *
 0001:00018784       __ehhandler$??$make_shared@VVideoRenderer@onvifmp@@ABV?$shared_ptr@VVideoBuffer@onvifmp@@@std@@@std@@YA?AV?$shared_ptr@VVideoRenderer@onvifmp@@@0@ABV?$shared_ptr@VVideoBuffer@onvifmp@@@0@@Z 10019784 f   * CIL library *:* CIL module *
 0001:00018784       __ehhandler$??$make_shared@VVideoDecoder@onvifmp@@$$$V@std@@YA?AV?$shared_ptr@VVideoDecoder@onvifmp@@@0@XZ 10019784 f   * CIL library *:* CIL module *
 0001:0001879f       __unwindfunclet$??$?0V<lambda_02633da78dd085cd30a2d2935e5e427d>@@@?$function@$$A6A?AV?$shared_ptr@VIFrameProcessor@onvifmp@@@std@@PAVVirtualSink@onvifmp@@@Z@std@@QAE@$$QAV<lambda_02633da78dd085cd30a2d2935e5e427d>@@@Z$0 1001979f f   * CIL library *:* CIL module *
 0001:000187a7       __unwindfunclet$??$?0V<lambda_02633da78dd085cd30a2d2935e5e427d>@@@?$function@$$A6A?AV?$shared_ptr@VIFrameProcessor@onvifmp@@@std@@PAVVirtualSink@onvifmp@@@Z@std@@QAE@$$QAV<lambda_02633da78dd085cd30a2d2935e5e427d>@@@Z$2 100197a7 f   * CIL library *:* CIL module *
 0001:000187ac       __unwindfunclet$??$?0V<lambda_02633da78dd085cd30a2d2935e5e427d>@@@?$function@$$A6A?AV?$shared_ptr@VIFrameProcessor@onvifmp@@@std@@PAVVirtualSink@onvifmp@@@Z@std@@QAE@$$QAV<lambda_02633da78dd085cd30a2d2935e5e427d>@@@Z$8 100197ac f   * CIL library *:* CIL module *
 0001:000187b4       __ehhandler$??$?0V<lambda_02633da78dd085cd30a2d2935e5e427d>@@@?$function@$$A6A?AV?$shared_ptr@VIFrameProcessor@onvifmp@@@std@@PAVVirtualSink@onvifmp@@@Z@std@@QAE@$$QAV<lambda_02633da78dd085cd30a2d2935e5e427d>@@@Z 100197b4 f   * CIL library *:* CIL module *
 0001:000187cf       __unwindfunclet$??0?$_Func_impl@U?$_Callable_obj@V<lambda_de1d15fe10d4d9865796d6851c4d8d4d>@@$0A@@std@@V?$allocator@V?$_Func_class@V?$shared_ptr@VIFrameProcessor@onvifmp@@@std@@PAVVirtualSink@onvifmp@@@std@@@2@V?$shared_ptr@VIFrameProcessor@onvifmp@@@2@PAVVirtualSink@onvifmp@@@std@@QAE@$$QAV<lambda_de1d15fe10d4d9865796d6851c4d8d4d>@@ABV?$allocator@V?$_Func_impl@U?$_Callable_obj@V<lambda_de1d15fe10d4d9865796d6851c4d8d4d>@@$0A@@std@@V?$allocator@V?$_Func_class@V?$shared_ptr@VIFrameProcessor@onvifmp@@@std@@PAVVirtualSink@onvifmp@@@std@@@2@V?$shared_ptr@VIFrameProcessor@onvifmp@@@2@PAVVirtualSink@onvifmp@@@std@@@1@@Z$0 100197cf f   * CIL library *:* CIL module *
 0001:000187d7       __unwindfunclet$??0?$_Func_impl@U?$_Callable_obj@V<lambda_de1d15fe10d4d9865796d6851c4d8d4d>@@$0A@@std@@V?$allocator@V?$_Func_class@V?$shared_ptr@VIFrameProcessor@onvifmp@@@std@@PAVVirtualSink@onvifmp@@@std@@@2@V?$shared_ptr@VIFrameProcessor@onvifmp@@@2@PAVVirtualSink@onvifmp@@@std@@QAE@$$QAV<lambda_de1d15fe10d4d9865796d6851c4d8d4d>@@ABV?$allocator@V?$_Func_impl@U?$_Callable_obj@V<lambda_de1d15fe10d4d9865796d6851c4d8d4d>@@$0A@@std@@V?$allocator@V?$_Func_class@V?$shared_ptr@VIFrameProcessor@onvifmp@@@std@@PAVVirtualSink@onvifmp@@@std@@@2@V?$shared_ptr@VIFrameProcessor@onvifmp@@@2@PAVVirtualSink@onvifmp@@@std@@@1@@Z$4 100197d7 f   * CIL library *:* CIL module *
 0001:000187df       __ehhandler$??0?$_Func_impl@U?$_Callable_obj@V<lambda_de1d15fe10d4d9865796d6851c4d8d4d>@@$0A@@std@@V?$allocator@V?$_Func_class@V?$shared_ptr@VIFrameProcessor@onvifmp@@@std@@PAVVirtualSink@onvifmp@@@std@@@2@V?$shared_ptr@VIFrameProcessor@onvifmp@@@2@PAVVirtualSink@onvifmp@@@std@@QAE@$$QAV<lambda_de1d15fe10d4d9865796d6851c4d8d4d>@@ABV?$allocator@V?$_Func_impl@U?$_Callable_obj@V<lambda_de1d15fe10d4d9865796d6851c4d8d4d>@@$0A@@std@@V?$allocator@V?$_Func_class@V?$shared_ptr@VIFrameProcessor@onvifmp@@@std@@PAVVirtualSink@onvifmp@@@std@@@2@V?$shared_ptr@VIFrameProcessor@onvifmp@@@2@PAVVirtualSink@onvifmp@@@std@@@1@@Z 100197df f   * CIL library *:* CIL module *
 0001:000187fa       __unwindfunclet$?_Copy@?$_Func_impl@U?$_Callable_obj@V<lambda_de1d15fe10d4d9865796d6851c4d8d4d>@@$0A@@std@@V?$allocator@V?$_Func_class@V?$shared_ptr@VIFrameProcessor@onvifmp@@@std@@PAVVirtualSink@onvifmp@@@std@@@2@V?$shared_ptr@VIFrameProcessor@onvifmp@@@2@PAVVirtualSink@onvifmp@@@std@@UAEPAV?$_Func_base@V?$shared_ptr@VIFrameProcessor@onvifmp@@@std@@PAVVirtualSink@onvifmp@@@2@PAX@Z$0 100197fa f   * CIL library *:* CIL module *
 0001:000187fa       __unwindfunclet$?_Move@?$_Func_impl@U?$_Callable_obj@V<lambda_de1d15fe10d4d9865796d6851c4d8d4d>@@$0A@@std@@V?$allocator@V?$_Func_class@V?$shared_ptr@VIFrameProcessor@onvifmp@@@std@@PAVVirtualSink@onvifmp@@@std@@@2@V?$shared_ptr@VIFrameProcessor@onvifmp@@@2@PAVVirtualSink@onvifmp@@@std@@UAEPAV?$_Func_base@V?$shared_ptr@VIFrameProcessor@onvifmp@@@std@@PAVVirtualSink@onvifmp@@@2@PAX@Z$0 100197fa f   * CIL library *:* CIL module *
 0001:000187ff       __unwindfunclet$?_Copy@?$_Func_impl@U?$_Callable_obj@V<lambda_de1d15fe10d4d9865796d6851c4d8d4d>@@$0A@@std@@V?$allocator@V?$_Func_class@V?$shared_ptr@VIFrameProcessor@onvifmp@@@std@@PAVVirtualSink@onvifmp@@@std@@@2@V?$shared_ptr@VIFrameProcessor@onvifmp@@@2@PAVVirtualSink@onvifmp@@@std@@UAEPAV?$_Func_base@V?$shared_ptr@VIFrameProcessor@onvifmp@@@std@@PAVVirtualSink@onvifmp@@@2@PAX@Z$1 100197ff f   * CIL library *:* CIL module *
 0001:000187ff       __unwindfunclet$?_Move@?$_Func_impl@U?$_Callable_obj@V<lambda_de1d15fe10d4d9865796d6851c4d8d4d>@@$0A@@std@@V?$allocator@V?$_Func_class@V?$shared_ptr@VIFrameProcessor@onvifmp@@@std@@PAVVirtualSink@onvifmp@@@std@@@2@V?$shared_ptr@VIFrameProcessor@onvifmp@@@2@PAVVirtualSink@onvifmp@@@std@@UAEPAV?$_Func_base@V?$shared_ptr@VIFrameProcessor@onvifmp@@@std@@PAVVirtualSink@onvifmp@@@2@PAX@Z$1 100197ff f   * CIL library *:* CIL module *
 0001:00018807       __unwindfunclet$?_Move@?$_Func_impl@U?$_Callable_obj@V<lambda_de1d15fe10d4d9865796d6851c4d8d4d>@@$0A@@std@@V?$allocator@V?$_Func_class@V?$shared_ptr@VIFrameProcessor@onvifmp@@@std@@PAVVirtualSink@onvifmp@@@std@@@2@V?$shared_ptr@VIFrameProcessor@onvifmp@@@2@PAVVirtualSink@onvifmp@@@std@@UAEPAV?$_Func_base@V?$shared_ptr@VIFrameProcessor@onvifmp@@@std@@PAVVirtualSink@onvifmp@@@2@PAX@Z$5 10019807 f   * CIL library *:* CIL module *
 0001:00018807       __unwindfunclet$?_Copy@?$_Func_impl@U?$_Callable_obj@V<lambda_de1d15fe10d4d9865796d6851c4d8d4d>@@$0A@@std@@V?$allocator@V?$_Func_class@V?$shared_ptr@VIFrameProcessor@onvifmp@@@std@@PAVVirtualSink@onvifmp@@@std@@@2@V?$shared_ptr@VIFrameProcessor@onvifmp@@@2@PAVVirtualSink@onvifmp@@@std@@UAEPAV?$_Func_base@V?$shared_ptr@VIFrameProcessor@onvifmp@@@std@@PAVVirtualSink@onvifmp@@@2@PAX@Z$5 10019807 f   * CIL library *:* CIL module *
 0001:0001880f       __ehhandler$?_Move@?$_Func_impl@U?$_Callable_obj@V<lambda_de1d15fe10d4d9865796d6851c4d8d4d>@@$0A@@std@@V?$allocator@V?$_Func_class@V?$shared_ptr@VIFrameProcessor@onvifmp@@@std@@PAVVirtualSink@onvifmp@@@std@@@2@V?$shared_ptr@VIFrameProcessor@onvifmp@@@2@PAVVirtualSink@onvifmp@@@std@@UAEPAV?$_Func_base@V?$shared_ptr@VIFrameProcessor@onvifmp@@@std@@PAVVirtualSink@onvifmp@@@2@PAX@Z 1001980f f   * CIL library *:* CIL module *
 0001:0001880f       __ehhandler$?_Copy@?$_Func_impl@U?$_Callable_obj@V<lambda_de1d15fe10d4d9865796d6851c4d8d4d>@@$0A@@std@@V?$allocator@V?$_Func_class@V?$shared_ptr@VIFrameProcessor@onvifmp@@@std@@PAVVirtualSink@onvifmp@@@std@@@2@V?$shared_ptr@VIFrameProcessor@onvifmp@@@2@PAVVirtualSink@onvifmp@@@std@@UAEPAV?$_Func_base@V?$shared_ptr@VIFrameProcessor@onvifmp@@@std@@PAVVirtualSink@onvifmp@@@2@PAX@Z 1001980f f   * CIL library *:* CIL module *
 0001:0001882a       __unwindfunclet$?_Copy@?$_Func_impl@U?$_Callable_obj@V<lambda_02633da78dd085cd30a2d2935e5e427d>@@$0A@@std@@V?$allocator@V?$_Func_class@V?$shared_ptr@VIFrameProcessor@onvifmp@@@std@@PAVVirtualSink@onvifmp@@@std@@@2@V?$shared_ptr@VIFrameProcessor@onvifmp@@@2@PAVVirtualSink@onvifmp@@@std@@UAEPAV?$_Func_base@V?$shared_ptr@VIFrameProcessor@onvifmp@@@std@@PAVVirtualSink@onvifmp@@@2@PAX@Z$0 1001982a f   * CIL library *:* CIL module *
 0001:0001882a       __unwindfunclet$?_Move@?$_Func_impl@U?$_Callable_obj@V<lambda_02633da78dd085cd30a2d2935e5e427d>@@$0A@@std@@V?$allocator@V?$_Func_class@V?$shared_ptr@VIFrameProcessor@onvifmp@@@std@@PAVVirtualSink@onvifmp@@@std@@@2@V?$shared_ptr@VIFrameProcessor@onvifmp@@@2@PAVVirtualSink@onvifmp@@@std@@UAEPAV?$_Func_base@V?$shared_ptr@VIFrameProcessor@onvifmp@@@std@@PAVVirtualSink@onvifmp@@@2@PAX@Z$0 1001982a f   * CIL library *:* CIL module *
 0001:0001882f       __unwindfunclet$?_Copy@?$_Func_impl@U?$_Callable_obj@V<lambda_02633da78dd085cd30a2d2935e5e427d>@@$0A@@std@@V?$allocator@V?$_Func_class@V?$shared_ptr@VIFrameProcessor@onvifmp@@@std@@PAVVirtualSink@onvifmp@@@std@@@2@V?$shared_ptr@VIFrameProcessor@onvifmp@@@2@PAVVirtualSink@onvifmp@@@std@@UAEPAV?$_Func_base@V?$shared_ptr@VIFrameProcessor@onvifmp@@@std@@PAVVirtualSink@onvifmp@@@2@PAX@Z$1 1001982f f   * CIL library *:* CIL module *
 0001:0001882f       __unwindfunclet$?_Move@?$_Func_impl@U?$_Callable_obj@V<lambda_02633da78dd085cd30a2d2935e5e427d>@@$0A@@std@@V?$allocator@V?$_Func_class@V?$shared_ptr@VIFrameProcessor@onvifmp@@@std@@PAVVirtualSink@onvifmp@@@std@@@2@V?$shared_ptr@VIFrameProcessor@onvifmp@@@2@PAVVirtualSink@onvifmp@@@std@@UAEPAV?$_Func_base@V?$shared_ptr@VIFrameProcessor@onvifmp@@@std@@PAVVirtualSink@onvifmp@@@2@PAX@Z$1 1001982f f   * CIL library *:* CIL module *
 0001:00018837       __ehhandler$?_Move@?$_Func_impl@U?$_Callable_obj@V<lambda_02633da78dd085cd30a2d2935e5e427d>@@$0A@@std@@V?$allocator@V?$_Func_class@V?$shared_ptr@VIFrameProcessor@onvifmp@@@std@@PAVVirtualSink@onvifmp@@@std@@@2@V?$shared_ptr@VIFrameProcessor@onvifmp@@@2@PAVVirtualSink@onvifmp@@@std@@UAEPAV?$_Func_base@V?$shared_ptr@VIFrameProcessor@onvifmp@@@std@@PAVVirtualSink@onvifmp@@@2@PAX@Z 10019837 f   * CIL library *:* CIL module *
 0001:00018837       __ehhandler$?_Copy@?$_Func_impl@U?$_Callable_obj@V<lambda_02633da78dd085cd30a2d2935e5e427d>@@$0A@@std@@V?$allocator@V?$_Func_class@V?$shared_ptr@VIFrameProcessor@onvifmp@@@std@@PAVVirtualSink@onvifmp@@@std@@@2@V?$shared_ptr@VIFrameProcessor@onvifmp@@@2@PAVVirtualSink@onvifmp@@@std@@UAEPAV?$_Func_base@V?$shared_ptr@VIFrameProcessor@onvifmp@@@std@@PAVVirtualSink@onvifmp@@@2@PAX@Z 10019837 f   * CIL library *:* CIL module *
 0001:00018852       __unwindfunclet$?createNewPacket@BufferedPacketFactory@@UAEPAVBufferedPacket@@PAVMultiFramedRTPSource@@@Z$0 10019852 f   * CIL library *:* CIL module *
 0001:00018852       __unwindfunclet$?createNew@MPEG2TransportStreamFramer@@SAPAV1@AAVUsageEnvironment@@PAVFramedSource@@@Z$0 10019852 f   * CIL library *:* CIL module *
 0001:00018852       __unwindfunclet$?createNewPacket@QTGenericBufferedPacketFactory@@EAEPAVBufferedPacket@@PAVMultiFramedRTPSource@@@Z$0 10019852 f   * CIL library *:* CIL module *
 0001:00018852       __unwindfunclet$?createNewPacket@ADUBufferedPacketFactory@@EAEPAVBufferedPacket@@PAVMultiFramedRTPSource@@@Z$0 10019852 f   * CIL library *:* CIL module *
 0001:00018852       __unwindfunclet$??0DeinterleavingFrames@@QAE@XZ$0 10019852 f   * CIL library *:* CIL module *
 0001:00018852       __unwindfunclet$?createNew@MediaSession@@SAPAV1@AAVUsageEnvironment@@PBD@Z$0 10019852 f   * CIL library *:* CIL module *
 0001:00018852       __unwindfunclet$?createNewPacket@JPEGBufferedPacketFactory@@EAEPAVBufferedPacket@@PAVMultiFramedRTPSource@@@Z$0 10019852 f   * CIL library *:* CIL module *
 0001:00018852       __unwindfunclet$?createNewPacket@AMRBufferedPacketFactory@@EAEPAVBufferedPacket@@PAVMultiFramedRTPSource@@@Z$0 10019852 f   * CIL library *:* CIL module *
 0001:00018852       __unwindfunclet$?createNewPacket@MPEG4GenericBufferedPacketFactory@@EAEPAVBufferedPacket@@PAVMultiFramedRTPSource@@@Z$0 10019852 f   * CIL library *:* CIL module *
 0001:00018852       __unwindfunclet$?setupHTTPTunneling2@RTSPClient@@AAE_NXZ$0 10019852 f   * CIL library *:* CIL module *
 0001:00018852       __unwindfunclet$?setupHTTPTunneling1@RTSPClient@@AAE_NXZ$0 10019852 f   * CIL library *:* CIL module *
 0001:00018852       __unwindfunclet$?createNew@MP3FromADUSource@@SAPAV1@AAVUsageEnvironment@@PAVFramedSource@@_N@Z$0 10019852 f   * CIL library *:* CIL module *
 0001:00018852       __unwindfunclet$?ourMedia@MediaLookupTable@@SAPAV1@AAVUsageEnvironment@@@Z$0 10019852 f   * CIL library *:* CIL module *
 0001:00018852       __unwindfunclet$?createNewPacket@H264BufferedPacketFactory@@EAEPAVBufferedPacket@@PAVMultiFramedRTPSource@@@Z$0 10019852 f   * CIL library *:* CIL module *
 0001:00018852       __unwindfunclet$?createNew@H263plusVideoRTPSource@@SAPAV1@AAVUsageEnvironment@@PAVGroupsock@@EI@Z$0 10019852 f   * CIL library *:* CIL module *
 0001:00018852       __unwindfunclet$?createNewPacket@VorbisBufferedPacketFactory@@EAEPAVBufferedPacket@@PAVMultiFramedRTPSource@@@Z$0 10019852 f   * CIL library *:* CIL module *
 0001:00018852       __unwindfunclet$?createNew@SimpleRTPSource@@SAPAV1@AAVUsageEnvironment@@PAVGroupsock@@EIPBDI_N@Z$0 10019852 f   * CIL library *:* CIL module *
 0001:00018852       __unwindfunclet$?createNewPacket@LATMBufferedPacketFactory@@EAEPAVBufferedPacket@@PAVMultiFramedRTPSource@@@Z$0 10019852 f   * CIL library *:* CIL module *
 0001:00018852       __unwindfunclet$?createNewPacket@QCELPBufferedPacketFactory@@EAEPAVBufferedPacket@@PAVMultiFramedRTPSource@@@Z$0 10019852 f   * CIL library *:* CIL module *
 0001:0001885c       __ehhandler$?setupHTTPTunneling1@RTSPClient@@AAE_NXZ 1001985c f   * CIL library *:* CIL module *
 0001:0001885c       __ehhandler$?createNewPacket@BufferedPacketFactory@@UAEPAVBufferedPacket@@PAVMultiFramedRTPSource@@@Z 1001985c f   * CIL library *:* CIL module *
 0001:0001885c       __ehhandler$?createNewPacket@QCELPBufferedPacketFactory@@EAEPAVBufferedPacket@@PAVMultiFramedRTPSource@@@Z 1001985c f   * CIL library *:* CIL module *
 0001:0001885c       __ehhandler$?createNew@MP3FromADUSource@@SAPAV1@AAVUsageEnvironment@@PAVFramedSource@@_N@Z 1001985c f   * CIL library *:* CIL module *
 0001:0001885c       __ehhandler$?setupHTTPTunneling2@RTSPClient@@AAE_NXZ 1001985c f   * CIL library *:* CIL module *
 0001:0001885c       __ehhandler$?createNewPacket@JPEGBufferedPacketFactory@@EAEPAVBufferedPacket@@PAVMultiFramedRTPSource@@@Z 1001985c f   * CIL library *:* CIL module *
 0001:0001885c       __ehhandler$?createNew@MPEG2TransportStreamFramer@@SAPAV1@AAVUsageEnvironment@@PAVFramedSource@@@Z 1001985c f   * CIL library *:* CIL module *
 0001:0001885c       __ehhandler$?createNewPacket@ADUBufferedPacketFactory@@EAEPAVBufferedPacket@@PAVMultiFramedRTPSource@@@Z 1001985c f   * CIL library *:* CIL module *
 0001:0001885c       __ehhandler$?createNewPacket@AMRBufferedPacketFactory@@EAEPAVBufferedPacket@@PAVMultiFramedRTPSource@@@Z 1001985c f   * CIL library *:* CIL module *
 0001:0001885c       __ehhandler$??0DeinterleavingFrames@@QAE@XZ 1001985c f   * CIL library *:* CIL module *
 0001:0001885c       __ehhandler$?createNew@H263plusVideoRTPSource@@SAPAV1@AAVUsageEnvironment@@PAVGroupsock@@EI@Z 1001985c f   * CIL library *:* CIL module *
 0001:0001885c       __ehhandler$?createNew@SimpleRTPSource@@SAPAV1@AAVUsageEnvironment@@PAVGroupsock@@EIPBDI_N@Z 1001985c f   * CIL library *:* CIL module *
 0001:0001885c       __ehhandler$?createNewPacket@LATMBufferedPacketFactory@@EAEPAVBufferedPacket@@PAVMultiFramedRTPSource@@@Z 1001985c f   * CIL library *:* CIL module *
 0001:0001885c       __ehhandler$?createNewPacket@MPEG4GenericBufferedPacketFactory@@EAEPAVBufferedPacket@@PAVMultiFramedRTPSource@@@Z 1001985c f   * CIL library *:* CIL module *
 0001:0001885c       __ehhandler$?ourMedia@MediaLookupTable@@SAPAV1@AAVUsageEnvironment@@@Z 1001985c f   * CIL library *:* CIL module *
 0001:0001885c       __ehhandler$?createNew@MediaSession@@SAPAV1@AAVUsageEnvironment@@PBD@Z 1001985c f   * CIL library *:* CIL module *
 0001:0001885c       __ehhandler$?createNewPacket@H264BufferedPacketFactory@@EAEPAVBufferedPacket@@PAVMultiFramedRTPSource@@@Z 1001985c f   * CIL library *:* CIL module *
 0001:0001885c       __ehhandler$?createNewPacket@VorbisBufferedPacketFactory@@EAEPAVBufferedPacket@@PAVMultiFramedRTPSource@@@Z 1001985c f   * CIL library *:* CIL module *
 0001:0001885c       __ehhandler$?createNewPacket@QTGenericBufferedPacketFactory@@EAEPAVBufferedPacket@@PAVMultiFramedRTPSource@@@Z 1001985c f   * CIL library *:* CIL module *
 0001:00018877       __unwindfunclet$??0MediaSession@@IAE@AAVUsageEnvironment@@@Z$0 10019877 f   * CIL library *:* CIL module *
 0001:0001887f       __ehhandler$??0MediaSession@@IAE@AAVUsageEnvironment@@@Z 1001987f f   * CIL library *:* CIL module *
 0001:000188a4       __unwindfunclet$??1MediaSession@@MAE@XZ$0 100198a4 f   * CIL library *:* CIL module *
 0001:000188a4       __unwindfunclet$??1MediaSink@@MAE@XZ$0 100198a4 f   * CIL library *:* CIL module *
 0001:000188ac       __ehhandler$??1MediaSink@@MAE@XZ 100198ac f   * CIL library *:* CIL module *
 0001:000188ac       __ehhandler$??1MediaSession@@MAE@XZ 100198ac f   * CIL library *:* CIL module *
 0001:000188c7       __unwindfunclet$?parseSourceFilterAttribute@@YA_NPBDAAUin_addr@@@Z$0 100198c7 f   * CIL library *:* CIL module *
 0001:000188cf       __ehhandler$?parseSourceFilterAttribute@@YA_NPBDAAUin_addr@@@Z 100198cf f   * CIL library *:* CIL module *
 0001:000188ea       __unwindfunclet$?initiate@MediaSubsession@@QAE_NH@Z$0 100198ea f   * CIL library *:* CIL module *
 0001:000188f4       __unwindfunclet$?initiate@MediaSubsession@@QAE_NH@Z$1 100198f4 f   * CIL library *:* CIL module *
 0001:000188fe       __unwindfunclet$?initiate@MediaSubsession@@QAE_NH@Z$2 100198fe f   * CIL library *:* CIL module *
 0001:00018908       __unwindfunclet$?initiate@MediaSubsession@@QAE_NH@Z$3 10019908 f   * CIL library *:* CIL module *
 0001:00018912       __unwindfunclet$?initiate@MediaSubsession@@QAE_NH@Z$4 10019912 f   * CIL library *:* CIL module *
 0001:0001891a       __unwindfunclet$?initiate@MediaSubsession@@QAE_NH@Z$5 1001991a f   * CIL library *:* CIL module *
 0001:00018924       __unwindfunclet$?initiate@MediaSubsession@@QAE_NH@Z$6 10019924 f   * CIL library *:* CIL module *
 0001:0001892e       __unwindfunclet$?initiate@MediaSubsession@@QAE_NH@Z$7 1001992e f   * CIL library *:* CIL module *
 0001:00018938       __unwindfunclet$?initiate@MediaSubsession@@QAE_NH@Z$8 10019938 f   * CIL library *:* CIL module *
 0001:00018942       __unwindfunclet$?initiate@MediaSubsession@@QAE_NH@Z$9 10019942 f   * CIL library *:* CIL module *
 0001:0001894c       __ehhandler$?initiate@MediaSubsession@@QAE_NH@Z 1001994c f   * CIL library *:* CIL module *
 0001:00018967       __unwindfunclet$?connectionEndpointAddress@MediaSubsession@@QBEIXZ$0 10019967 f   * CIL library *:* CIL module *
 0001:0001896f       __ehhandler$?connectionEndpointAddress@MediaSubsession@@QBEIXZ 1001996f f   * CIL library *:* CIL module *
 0001:0001898a       __unwindfunclet$?createSourceObjects@MediaSubsession@@MAE_NH@Z$0 1001998a f   * CIL library *:* CIL module *
 0001:00018994       __unwindfunclet$?createSourceObjects@MediaSubsession@@MAE_NH@Z$1 10019994 f   * CIL library *:* CIL module *
 0001:0001899e       __unwindfunclet$?createSourceObjects@MediaSubsession@@MAE_NH@Z$3 1001999e f   * CIL library *:* CIL module *
 0001:000189a8       __unwindfunclet$?createSourceObjects@MediaSubsession@@MAE_NH@Z$4 100199a8 f   * CIL library *:* CIL module *
 0001:000189b2       __unwindfunclet$?createSourceObjects@MediaSubsession@@MAE_NH@Z$8 100199b2 f   * CIL library *:* CIL module *
 0001:000189bc       __unwindfunclet$?createSourceObjects@MediaSubsession@@MAE_NH@Z$10 100199bc f   * CIL library *:* CIL module *
 0001:000189c6       __unwindfunclet$?createSourceObjects@MediaSubsession@@MAE_NH@Z$11 100199c6 f   * CIL library *:* CIL module *
 0001:000189d0       __unwindfunclet$?createSourceObjects@MediaSubsession@@MAE_NH@Z$13 100199d0 f   * CIL library *:* CIL module *
 0001:000189da       __unwindfunclet$?createSourceObjects@MediaSubsession@@MAE_NH@Z$15 100199da f   * CIL library *:* CIL module *
 0001:000189e4       __unwindfunclet$?createSourceObjects@MediaSubsession@@MAE_NH@Z$17 100199e4 f   * CIL library *:* CIL module *
 0001:000189ee       __unwindfunclet$?createSourceObjects@MediaSubsession@@MAE_NH@Z$6 100199ee f   * CIL library *:* CIL module *
 0001:000189f8       __ehhandler$?createSourceObjects@MediaSubsession@@MAE_NH@Z 100199f8 f   * CIL library *:* CIL module *
 0001:00018a13       __unwindfunclet$??0BasicUsageEnvironment@@IAE@AAVTaskScheduler@@@Z$0 10019a13 f   * CIL library *:* CIL module *
 0001:00018a1b       __ehhandler$??0BasicUsageEnvironment@@IAE@AAVTaskScheduler@@@Z 10019a1b f   * CIL library *:* CIL module *
 0001:00018a36       __unwindfunclet$??0BasicTaskScheduler@@IAE@I@Z$0 10019a36 f   * CIL library *:* CIL module *
 0001:00018a3e       __ehhandler$??0BasicTaskScheduler@@IAE@I@Z 10019a3e f   * CIL library *:* CIL module *
 0001:00018a59       __unwindfunclet$?SingleStep@BasicTaskScheduler@@MAEXI@Z$0 10019a59 f   * CIL library *:* CIL module *
 0001:00018a64       __ehhandler$?SingleStep@BasicTaskScheduler@@MAEXI@Z 10019a64 f   * CIL library *:* CIL module *
 0001:00018a8c       __unwindfunclet$?sendDescribeCommand@RTSPClient@@QAEIP6AXPAV1@HPAD@ZPAVAuthenticator@@@Z$0 10019a8c f   * CIL library *:* CIL module *
 0001:00018a8c       __unwindfunclet$?sendOptionsCommand@RTSPClient@@QAEIP6AXPAV1@HPAD@ZPAVAuthenticator@@@Z$0 10019a8c f   * CIL library *:* CIL module *
 0001:00018a96       __ehhandler$?sendDescribeCommand@RTSPClient@@QAEIP6AXPAV1@HPAD@ZPAVAuthenticator@@@Z 10019a96 f   * CIL library *:* CIL module *
 0001:00018a96       __ehhandler$?sendOptionsCommand@RTSPClient@@QAEIP6AXPAV1@HPAD@ZPAVAuthenticator@@@Z 10019a96 f   * CIL library *:* CIL module *
 0001:00018ab1       __unwindfunclet$?sendSetupCommand@RTSPClient@@QAEIAAVMediaSubsession@@P6AXPAV1@HPAD@Z_N44PAVAuthenticator@@@Z$0 10019ab1 f   * CIL library *:* CIL module *
 0001:00018abb       __ehhandler$?sendSetupCommand@RTSPClient@@QAEIAAVMediaSubsession@@P6AXPAV1@HPAD@Z_N44PAVAuthenticator@@@Z 10019abb f   * CIL library *:* CIL module *
 0001:00018ad6       __unwindfunclet$?parseRTSPURL@RTSPClient@@SA_NAAVUsageEnvironment@@PBDAAPAD2AAVNetAddress@@AAGPAPBD@Z$0 10019ad6 f   * CIL library *:* CIL module *
 0001:00018ae1       __ehhandler$?parseRTSPURL@RTSPClient@@SA_NAAVUsageEnvironment@@PBDAAPAD2AAVNetAddress@@AAGPAPBD@Z 10019ae1 f   * CIL library *:* CIL module *
 0001:00018b09       __unwindfunclet$??0RTSPClient@@IAE@AAVUsageEnvironment@@PBDH1G@Z$0 10019b09 f   * CIL library *:* CIL module *
 0001:00018b09       __unwindfunclet$??1RTSPClient@@MAE@XZ$0 10019b09 f   * CIL library *:* CIL module *
 0001:00018b11       __unwindfunclet$??1RTSPClient@@MAE@XZ$1 10019b11 f   * CIL library *:* CIL module *
 0001:00018b11       __unwindfunclet$??0RTSPClient@@IAE@AAVUsageEnvironment@@PBDH1G@Z$1 10019b11 f   * CIL library *:* CIL module *
 0001:00018b1c       __unwindfunclet$??0RTSPClient@@IAE@AAVUsageEnvironment@@PBDH1G@Z$2 10019b1c f   * CIL library *:* CIL module *
 0001:00018b1c       __unwindfunclet$??1RTSPClient@@MAE@XZ$2 10019b1c f   * CIL library *:* CIL module *
 0001:00018b2a       __unwindfunclet$??1RTSPClient@@MAE@XZ$3 10019b2a f   * CIL library *:* CIL module *
 0001:00018b2a       __unwindfunclet$??0RTSPClient@@IAE@AAVUsageEnvironment@@PBDH1G@Z$3 10019b2a f   * CIL library *:* CIL module *
 0001:00018b38       __unwindfunclet$??0RTSPClient@@IAE@AAVUsageEnvironment@@PBDH1G@Z$4 10019b38 f   * CIL library *:* CIL module *
 0001:00018b38       __unwindfunclet$??1RTSPClient@@MAE@XZ$4 10019b38 f   * CIL library *:* CIL module *
 0001:00018b46       __ehhandler$??0RTSPClient@@IAE@AAVUsageEnvironment@@PBDH1G@Z 10019b46 f   * CIL library *:* CIL module *
 0001:00018b46       __ehhandler$??1RTSPClient@@MAE@XZ 10019b46 f   * CIL library *:* CIL module *
 0001:00018b61       __unwindfunclet$?openConnection@RTSPClient@@AAEHXZ$0 10019b61 f   * CIL library *:* CIL module *
 0001:00018b69       __ehhandler$?openConnection@RTSPClient@@AAEHXZ 10019b69 f   * CIL library *:* CIL module *
 0001:00018b84       __unwindfunclet$?connectToServer@RTSPClient@@AAEHHG@Z$0 10019b84 f   * CIL library *:* CIL module *
 0001:00018b8c       __ehhandler$?connectToServer@RTSPClient@@AAEHHG@Z 10019b8c f   * CIL library *:* CIL module *
 0001:00018bb1       __unwindfunclet$?sendRequest@RTSPClient@@MAEIPAVRequestRecord@1@@Z$0 10019bb1 f   * CIL library *:* CIL module *
 0001:00018bb9       __ehhandler$?sendRequest@RTSPClient@@MAEIPAVRequestRecord@1@@Z 10019bb9 f   * CIL library *:* CIL module *
 0001:00018be1       __unwindfunclet$?handlePLAYResponse@RTSPClient@@AAE_NAAVMediaSession@@AAVMediaSubsession@@PBD22@Z$0 10019be1 f   * CIL library *:* CIL module *
 0001:00018be9       __ehhandler$?handlePLAYResponse@RTSPClient@@AAE_NAAVMediaSession@@AAVMediaSubsession@@PBD22@Z 10019be9 f   * CIL library *:* CIL module *
 0001:00018c04       __unwindfunclet$?responseHandlerForHTTP_GET1@RTSPClient@@AAEXHPAD@Z$0 10019c04 f   * CIL library *:* CIL module *
 0001:00018c0c       __ehhandler$?responseHandlerForHTTP_GET1@RTSPClient@@AAEXHPAD@Z 10019c0c f   * CIL library *:* CIL module *
 0001:00018c27       __unwindfunclet$?connectionHandler1@RTSPClient@@AAEXXZ$0 10019c27 f   * CIL library *:* CIL module *
 0001:00018c2f       __ehhandler$?connectionHandler1@RTSPClient@@AAEXXZ 10019c2f f   * CIL library *:* CIL module *
 0001:00018c4a       __unwindfunclet$?handleResponseBytes@RTSPClient@@AAEXH@Z$0 10019c4a f   * CIL library *:* CIL module *
 0001:00018c55       __ehhandler$?handleResponseBytes@RTSPClient@@AAEXH@Z 10019c55 f   * CIL library *:* CIL module *
 0001:00018c83       __unwindfunclet$?describeURL@RTSPClient@@QAEPADPBDPAVAuthenticator@@_NH@Z$0 10019c83 f   * CIL library *:* CIL module *
 0001:00018c8b       __ehhandler$?describeURL@RTSPClient@@QAEPADPBDPAVAuthenticator@@_NH@Z 10019c8b f   * CIL library *:* CIL module *
 0001:00018ca6       __unwindfunclet$?sendOptionsCmd@RTSPClient@@QAEPADPBDPAD1PAVAuthenticator@@H@Z$0 10019ca6 f   * CIL library *:* CIL module *
 0001:00018cae       __unwindfunclet$?sendOptionsCmd@RTSPClient@@QAEPADPBDPAD1PAVAuthenticator@@H@Z$1 10019cae f   * CIL library *:* CIL module *
 0001:00018cb8       __ehhandler$?sendOptionsCmd@RTSPClient@@QAEPADPBDPAD1PAVAuthenticator@@H@Z 10019cb8 f   * CIL library *:* CIL module *
 0001:00018cd3       __unwindfunclet$?playMediaSession@RTSPClient@@QAE_NAAVMediaSession@@NNM@Z$0 10019cd3 f   * CIL library *:* CIL module *
 0001:00018cdd       __ehhandler$?playMediaSession@RTSPClient@@QAE_NAAVMediaSession@@NNM@Z 10019cdd f   * CIL library *:* CIL module *
 0001:00018cf8       __unwindfunclet$?teardownMediaSession@RTSPClient@@QAE_NAAVMediaSession@@@Z$0 10019cf8 f   * CIL library *:* CIL module *
 0001:00018d02       __ehhandler$?teardownMediaSession@RTSPClient@@QAE_NAAVMediaSession@@@Z 10019d02 f   * CIL library *:* CIL module *
 0001:00018d1d       __unwindfunclet$?createNew@JPEGVideoRTPSource@@SAPAV1@AAVUsageEnvironment@@PAVGroupsock@@EIII@Z$0 10019d1d f   * CIL library *:* CIL module *
 0001:00018d1d       __unwindfunclet$?createNew@MP3ADURTPSource@@SAPAV1@AAVUsageEnvironment@@PAVGroupsock@@EI@Z$0 10019d1d f   * CIL library *:* CIL module *
 0001:00018d1d       __unwindfunclet$?createNew@H264VideoRTPSource@@SAPAV1@AAVUsageEnvironment@@PAVGroupsock@@EI@Z$0 10019d1d f   * CIL library *:* CIL module *
 0001:00018d1d       __unwindfunclet$?lookupSocketDescriptor@@YAPAVSocketDescriptor@@AAVUsageEnvironment@@H_N@Z$0 10019d1d f   * CIL library *:* CIL module *
 0001:00018d1d       __unwindfunclet$?createNew@VorbisAudioRTPSource@@SAPAV1@AAVUsageEnvironment@@PAVGroupsock@@EI@Z$0 10019d1d f   * CIL library *:* CIL module *
 0001:00018d1d       __unwindfunclet$?createNew@MPEG4LATMAudioRTPSource@@SAPAV1@AAVUsageEnvironment@@PAVGroupsock@@EI@Z$0 10019d1d f   * CIL library *:* CIL module *
 0001:00018d27       __ehhandler$?createNew@JPEGVideoRTPSource@@SAPAV1@AAVUsageEnvironment@@PAVGroupsock@@EIII@Z 10019d27 f   * CIL library *:* CIL module *
 0001:00018d27       __ehhandler$?lookupSocketDescriptor@@YAPAVSocketDescriptor@@AAVUsageEnvironment@@H_N@Z 10019d27 f   * CIL library *:* CIL module *
 0001:00018d27       __ehhandler$?createNew@MP3ADURTPSource@@SAPAV1@AAVUsageEnvironment@@PAVGroupsock@@EI@Z 10019d27 f   * CIL library *:* CIL module *
 0001:00018d27       __ehhandler$?createNew@H264VideoRTPSource@@SAPAV1@AAVUsageEnvironment@@PAVGroupsock@@EI@Z 10019d27 f   * CIL library *:* CIL module *
 0001:00018d27       __ehhandler$?createNew@VorbisAudioRTPSource@@SAPAV1@AAVUsageEnvironment@@PAVGroupsock@@EI@Z 10019d27 f   * CIL library *:* CIL module *
 0001:00018d27       __ehhandler$?createNew@MPEG4LATMAudioRTPSource@@SAPAV1@AAVUsageEnvironment@@PAVGroupsock@@EI@Z 10019d27 f   * CIL library *:* CIL module *
 0001:00018d42       __unwindfunclet$??0RTPSource@@IAE@AAVUsageEnvironment@@PAVGroupsock@@EI@Z$0 10019d42 f   * CIL library *:* CIL module *
 0001:00018d4a       __unwindfunclet$??0RTPSource@@IAE@AAVUsageEnvironment@@PAVGroupsock@@EI@Z$1 10019d4a f   * CIL library *:* CIL module *
 0001:00018d55       __unwindfunclet$??0RTPSource@@IAE@AAVUsageEnvironment@@PAVGroupsock@@EI@Z$2 10019d55 f   * CIL library *:* CIL module *
 0001:00018d5f       __ehhandler$??0RTPSource@@IAE@AAVUsageEnvironment@@PAVGroupsock@@EI@Z 10019d5f f   * CIL library *:* CIL module *
 0001:00018d7a       __unwindfunclet$??1RTPSource@@MAE@XZ$0 10019d7a f   * CIL library *:* CIL module *
 0001:00018d82       __unwindfunclet$??1RTPSource@@MAE@XZ$1 10019d82 f   * CIL library *:* CIL module *
 0001:00018d8d       __ehhandler$??1RTPSource@@MAE@XZ 10019d8d f   * CIL library *:* CIL module *
 0001:00018da8       __unwindfunclet$?reset@RTPReceptionStatsDB@@QAEXXZ$0 10019da8 f   * CIL library *:* CIL module *
 0001:00018db0       __ehhandler$?reset@RTPReceptionStatsDB@@QAEXXZ 10019db0 f   * CIL library *:* CIL module *
 0001:00018dcb       __unwindfunclet$??0MPEG4GenericRTPSource@@AAE@AAVUsageEnvironment@@PAVGroupsock@@EIPBD2III@Z$1 10019dcb f   * CIL library *:* CIL module *
 0001:00018dcb       __unwindfunclet$??0SimpleRTPSource@@IAE@AAVUsageEnvironment@@PAVGroupsock@@EIPBDI_N@Z$0 10019dcb f   * CIL library *:* CIL module *
 0001:00018dcb       __unwindfunclet$??0QuickTimeGenericRTPSource@@AAE@AAVUsageEnvironment@@PAVGroupsock@@EIPBD@Z$1 10019dcb f   * CIL library *:* CIL module *
 0001:00018dd3       __ehhandler$??0SimpleRTPSource@@IAE@AAVUsageEnvironment@@PAVGroupsock@@EIPBDI_N@Z 10019dd3 f   * CIL library *:* CIL module *
 0001:00018dd3       __ehhandler$??0QuickTimeGenericRTPSource@@AAE@AAVUsageEnvironment@@PAVGroupsock@@EIPBD@Z 10019dd3 f   * CIL library *:* CIL module *
 0001:00018dd3       __ehhandler$??0MPEG4GenericRTPSource@@AAE@AAVUsageEnvironment@@PAVGroupsock@@EIPBD2III@Z 10019dd3 f   * CIL library *:* CIL module *
 0001:00018dee       __unwindfunclet$?createNew@QCELPAudioRTPSource@@SAPAVFramedSource@@AAVUsageEnvironment@@PAVGroupsock@@AAPAVRTPSource@@EI@Z$0 10019dee f   * CIL library *:* CIL module *
 0001:00018df8       __unwindfunclet$?createNew@QCELPAudioRTPSource@@SAPAVFramedSource@@AAVUsageEnvironment@@PAVGroupsock@@AAPAVRTPSource@@EI@Z$1 10019df8 f   * CIL library *:* CIL module *
 0001:00018e02       __ehhandler$?createNew@QCELPAudioRTPSource@@SAPAVFramedSource@@AAVUsageEnvironment@@PAVGroupsock@@AAPAVRTPSource@@EI@Z 10019e02 f   * CIL library *:* CIL module *
 0001:00018e1d       __unwindfunclet$??0QCELPDeinterleaver@@AAE@AAVUsageEnvironment@@PAVRawQCELPRTPSource@@@Z$0 10019e1d f   * CIL library *:* CIL module *
 0001:00018e25       __unwindfunclet$??0QCELPDeinterleaver@@AAE@AAVUsageEnvironment@@PAVRawQCELPRTPSource@@@Z$1 10019e25 f   * CIL library *:* CIL module *
 0001:00018e2f       __ehhandler$??0QCELPDeinterleaver@@AAE@AAVUsageEnvironment@@PAVRawQCELPRTPSource@@@Z 10019e2f f   * CIL library *:* CIL module *
 0001:00018e4a       __unwindfunclet$??1QCELPDeinterleaver@@EAE@XZ$0 10019e4a f   * CIL library *:* CIL module *
 0001:00018e4a       __unwindfunclet$??1MPEG2TransportStreamFramer@@MAE@XZ$0 10019e4a f   * CIL library *:* CIL module *
 0001:00018e4a       __unwindfunclet$??0MPEG2TransportStreamFramer@@IAE@AAVUsageEnvironment@@PAVFramedSource@@@Z$0 10019e4a f   * CIL library *:* CIL module *
 0001:00018e4a       __unwindfunclet$??0MP3FromADUSource@@IAE@AAVUsageEnvironment@@PAVFramedSource@@_N@Z$0 10019e4a f   * CIL library *:* CIL module *
 0001:00018e52       __ehhandler$??1QCELPDeinterleaver@@EAE@XZ 10019e52 f   * CIL library *:* CIL module *
 0001:00018e52       __ehhandler$??0MPEG2TransportStreamFramer@@IAE@AAVUsageEnvironment@@PAVFramedSource@@@Z 10019e52 f   * CIL library *:* CIL module *
 0001:00018e52       __ehhandler$??1MPEG2TransportStreamFramer@@MAE@XZ 10019e52 f   * CIL library *:* CIL module *
 0001:00018e52       __ehhandler$??0MP3FromADUSource@@IAE@AAVUsageEnvironment@@PAVFramedSource@@_N@Z 10019e52 f   * CIL library *:* CIL module *
 0001:00018e6d       __unwindfunclet$??0QCELPDeinterleavingBuffer@@QAE@XZ$0 10019e6d f   * CIL library *:* CIL module *
 0001:00018e83       __ehhandler$??0QCELPDeinterleavingBuffer@@QAE@XZ 10019e83 f   * CIL library *:* CIL module *
 0001:00018e9e       __unwindfunclet$??1FramedFilter@@MAE@XZ$0 10019e9e f   * CIL library *:* CIL module *
 0001:00018e9e       __unwindfunclet$??1BasicUDPSource@@UAE@XZ$0 10019e9e f   * CIL library *:* CIL module *
 0001:00018e9e       __unwindfunclet$??0BasicUDPSource@@AAE@AAVUsageEnvironment@@PAVGroupsock@@@Z$0 10019e9e f   * CIL library *:* CIL module *
 0001:00018e9e       __unwindfunclet$??1AMRDeinterleaver@@EAE@XZ$0 10019e9e f   * CIL library *:* CIL module *
 0001:00018ea6       __ehhandler$??1FramedFilter@@MAE@XZ 10019ea6 f   * CIL library *:* CIL module *
 0001:00018ea6       __ehhandler$??1BasicUDPSource@@UAE@XZ 10019ea6 f   * CIL library *:* CIL module *
 0001:00018ea6       __ehhandler$??1AMRDeinterleaver@@EAE@XZ 10019ea6 f   * CIL library *:* CIL module *
 0001:00018ea6       __ehhandler$??0BasicUDPSource@@AAE@AAVUsageEnvironment@@PAVGroupsock@@@Z 10019ea6 f   * CIL library *:* CIL module *
 0001:00018ec1       __unwindfunclet$??0MP3ADUdeinterleaver@@IAE@AAVUsageEnvironment@@PAVFramedSource@@@Z$0 10019ec1 f   * CIL library *:* CIL module *
 0001:00018ec9       __unwindfunclet$??0MP3ADUdeinterleaver@@IAE@AAVUsageEnvironment@@PAVFramedSource@@@Z$1 10019ec9 f   * CIL library *:* CIL module *
 0001:00018ed3       __ehhandler$??0MP3ADUdeinterleaver@@IAE@AAVUsageEnvironment@@PAVFramedSource@@@Z 10019ed3 f   * CIL library *:* CIL module *
 0001:00018eee       __unwindfunclet$??1MP3ADUdeinterleaver@@MAE@XZ$0 10019eee f   * CIL library *:* CIL module *
 0001:00018ef6       __ehhandler$??1MP3ADUdeinterleaver@@MAE@XZ 10019ef6 f   * CIL library *:* CIL module *
 0001:00018f11       __unwindfunclet$??0RTCPInstance@@IAE@AAVUsageEnvironment@@PAVGroupsock@@IPBEPAVRTPSink@@PBVRTPSource@@_N@Z$0 10019f11 f   * CIL library *:* CIL module *
 0001:00018f19       __unwindfunclet$??0RTCPInstance@@IAE@AAVUsageEnvironment@@PAVGroupsock@@IPBEPAVRTPSink@@PBVRTPSource@@_N@Z$1 10019f19 f   * CIL library *:* CIL module *
 0001:00018f24       __unwindfunclet$??0RTCPInstance@@IAE@AAVUsageEnvironment@@PAVGroupsock@@IPBEPAVRTPSink@@PBVRTPSource@@_N@Z$2 10019f24 f   * CIL library *:* CIL module *
 0001:00018f2e       __unwindfunclet$??0RTCPInstance@@IAE@AAVUsageEnvironment@@PAVGroupsock@@IPBEPAVRTPSink@@PBVRTPSource@@_N@Z$3 10019f2e f   * CIL library *:* CIL module *
 0001:00018f38       __ehhandler$??0RTCPInstance@@IAE@AAVUsageEnvironment@@PAVGroupsock@@IPBEPAVRTPSink@@PBVRTPSource@@_N@Z 10019f38 f   * CIL library *:* CIL module *
 0001:00018f53       __unwindfunclet$??1RTCPInstance@@MAE@XZ$0 10019f53 f   * CIL library *:* CIL module *
 0001:00018f5b       __unwindfunclet$??1RTCPInstance@@MAE@XZ$1 10019f5b f   * CIL library *:* CIL module *
 0001:00018f66       __unwindfunclet$??1RTCPInstance@@MAE@XZ$2 10019f66 f   * CIL library *:* CIL module *
 0001:00018f6e       __ehhandler$??1RTCPInstance@@MAE@XZ 10019f6e f   * CIL library *:* CIL module *
 0001:00018f89       __unwindfunclet$?enqueueCommonReportSuffix@RTCPInstance@@AAEXXZ$0 10019f89 f   * CIL library *:* CIL module *
 0001:00018f91       __ehhandler$?enqueueCommonReportSuffix@RTCPInstance@@AAEXXZ 10019f91 f   * CIL library *:* CIL module *
 0001:00018fac       __unwindfunclet$?createNew@AMRAudioRTPSource@@SAPAVAMRAudioSource@@AAVUsageEnvironment@@PAVGroupsock@@AAPAVRTPSource@@E_NI3I33@Z$0 10019fac f   * CIL library *:* CIL module *
 0001:00018fb6       __unwindfunclet$?createNew@AMRAudioRTPSource@@SAPAVAMRAudioSource@@AAVUsageEnvironment@@PAVGroupsock@@AAPAVRTPSource@@E_NI3I33@Z$1 10019fb6 f   * CIL library *:* CIL module *
 0001:00018fc0       __ehhandler$?createNew@AMRAudioRTPSource@@SAPAVAMRAudioSource@@AAVUsageEnvironment@@PAVGroupsock@@AAPAVRTPSource@@E_NI3I33@Z 10019fc0 f   * CIL library *:* CIL module *
 0001:00018fdc       __unwindfunclet$??0AMRDeinterleaver@@AAE@AAVUsageEnvironment@@_NIIPAVRawAMRRTPSource@@@Z$0 10019fdc f   * CIL library *:* CIL module *
 0001:00018fe4       __unwindfunclet$??0AMRDeinterleaver@@AAE@AAVUsageEnvironment@@_NIIPAVRawAMRRTPSource@@@Z$1 10019fe4 f   * CIL library *:* CIL module *
 0001:00018fee       __ehhandler$??0AMRDeinterleaver@@AAE@AAVUsageEnvironment@@_NIIPAVRawAMRRTPSource@@@Z 10019fee f   * CIL library *:* CIL module *
 0001:00019009       __unwindfunclet$??0AMRDeinterleavingBuffer@@QAE@II@Z$0 1001a009 f   * CIL library *:* CIL module *
 0001:00019013       __unwindfunclet$??0AMRDeinterleavingBuffer@@QAE@II@Z$1 1001a013 f   * CIL library *:* CIL module *
 0001:0001901d       __ehhandler$??0AMRDeinterleavingBuffer@@QAE@II@Z 1001a01d f   * CIL library *:* CIL module *
 0001:00019038       __unwindfunclet$??1destRecord@@UAE@XZ$0 1001a038 f   * CIL library *:* CIL module *
 0001:00019043       __ehhandler$??1destRecord@@UAE@XZ 1001a043 f   * CIL library *:* CIL module *
 0001:0001905e       __unwindfunclet$??0Groupsock@@QAE@AAVUsageEnvironment@@ABUin_addr@@VPort@@E@Z$0 1001a05e f   * CIL library *:* CIL module *
 0001:00019066       __unwindfunclet$??0Groupsock@@QAE@AAVUsageEnvironment@@ABUin_addr@@VPort@@E@Z$1 1001a066 f   * CIL library *:* CIL module *
 0001:0001906e       __unwindfunclet$??0Groupsock@@QAE@AAVUsageEnvironment@@ABUin_addr@@VPort@@E@Z$2 1001a06e f   * CIL library *:* CIL module *
 0001:00019079       __unwindfunclet$??0Groupsock@@QAE@AAVUsageEnvironment@@ABUin_addr@@VPort@@E@Z$3 1001a079 f   * CIL library *:* CIL module *
 0001:00019084       __ehhandler$??0Groupsock@@QAE@AAVUsageEnvironment@@ABUin_addr@@VPort@@E@Z 1001a084 f   * CIL library *:* CIL module *
 0001:0001909f       __unwindfunclet$??0Groupsock@@QAE@AAVUsageEnvironment@@ABUin_addr@@1VPort@@@Z$0 1001a09f f   * CIL library *:* CIL module *
 0001:000190a7       __unwindfunclet$??0Groupsock@@QAE@AAVUsageEnvironment@@ABUin_addr@@1VPort@@@Z$3 1001a0a7 f   * CIL library *:* CIL module *
 0001:000190b2       __unwindfunclet$??0Groupsock@@QAE@AAVUsageEnvironment@@ABUin_addr@@1VPort@@@Z$4 1001a0b2 f   * CIL library *:* CIL module *
 0001:000190ba       __unwindfunclet$??0Groupsock@@QAE@AAVUsageEnvironment@@ABUin_addr@@1VPort@@@Z$1 1001a0ba f   * CIL library *:* CIL module *
 0001:000190c5       __unwindfunclet$??0Groupsock@@QAE@AAVUsageEnvironment@@ABUin_addr@@1VPort@@@Z$2 1001a0c5 f   * CIL library *:* CIL module *
 0001:000190d0       __ehhandler$??0Groupsock@@QAE@AAVUsageEnvironment@@ABUin_addr@@1VPort@@@Z 1001a0d0 f   * CIL library *:* CIL module *
 0001:000190f5       __unwindfunclet$??1Groupsock@@UAE@XZ$0 1001a0f5 f   * CIL library *:* CIL module *
 0001:000190fd       __unwindfunclet$??1Groupsock@@UAE@XZ$1 1001a0fd f   * CIL library *:* CIL module *
 0001:00019108       __unwindfunclet$??1Groupsock@@UAE@XZ$2 1001a108 f   * CIL library *:* CIL module *
 0001:00019113       __ehhandler$??1Groupsock@@UAE@XZ 1001a113 f   * CIL library *:* CIL module *
 0001:00019138       __unwindfunclet$?changeDestinationParameters@Groupsock@@QAEXABUin_addr@@VPort@@H@Z$0 1001a138 f   * CIL library *:* CIL module *
 0001:00019140       __unwindfunclet$?changeDestinationParameters@Groupsock@@QAEXABUin_addr@@VPort@@H@Z$1 1001a140 f   * CIL library *:* CIL module *
 0001:00019148       __ehhandler$?changeDestinationParameters@Groupsock@@QAEXABUin_addr@@VPort@@H@Z 1001a148 f   * CIL library *:* CIL module *
 0001:00019163       __unwindfunclet$?addDestination@Groupsock@@QAEXABUin_addr@@ABVPort@@@Z$0 1001a163 f   * CIL library *:* CIL module *
 0001:0001916d       __unwindfunclet$?addDestination@Groupsock@@QAEXABUin_addr@@ABVPort@@@Z$1 1001a16d f   * CIL library *:* CIL module *
 0001:00019175       __ehhandler$?addDestination@Groupsock@@QAEXABUin_addr@@ABVPort@@@Z 1001a175 f   * CIL library *:* CIL module *
 0001:00019190       __unwindfunclet$?outputToAllMembersExcept@Groupsock@@AAEHPAVDirectedNetInterface@@EPAEII@Z$0 1001a190 f   * CIL library *:* CIL module *
 0001:00019198       __ehhandler$?outputToAllMembersExcept@Groupsock@@AAEHPAVDirectedNetInterface@@EPAEII@Z 1001a198 f   * CIL library *:* CIL module *
 0001:000191bd       __unwindfunclet$??6@YAAAVUsageEnvironment@@AAV0@ABVGroupsock@@@Z$0 1001a1bd f   * CIL library *:* CIL module *
 0001:000191c5       __unwindfunclet$??6@YAAAVUsageEnvironment@@AAV0@ABVGroupsock@@@Z$1 1001a1c5 f   * CIL library *:* CIL module *
 0001:000191cd       __ehhandler$??6@YAAAVUsageEnvironment@@AAV0@ABVGroupsock@@@Z 1001a1cd f   * CIL library *:* CIL module *
 0001:000191e8       __unwindfunclet$??0BasicTaskScheduler0@@IAE@XZ$0 1001a1e8 f   * CIL library *:* CIL module *
 0001:000191f0       __unwindfunclet$??0BasicTaskScheduler0@@IAE@XZ$1 1001a1f0 f   * CIL library *:* CIL module *
 0001:000191fb       __ehhandler$??0BasicTaskScheduler0@@IAE@XZ 1001a1fb f   * CIL library *:* CIL module *
 0001:00019216       __unwindfunclet$??1BasicTaskScheduler0@@UAE@XZ$0 1001a216 f   * CIL library *:* CIL module *
 0001:0001921e       __unwindfunclet$??1BasicTaskScheduler0@@UAE@XZ$1 1001a21e f   * CIL library *:* CIL module *
 0001:00019229       __ehhandler$??1BasicTaskScheduler0@@UAE@XZ 1001a229 f   * CIL library *:* CIL module *
 0001:00019244       __unwindfunclet$??1HandlerSet@@UAE@XZ$0 1001a244 f   * CIL library *:* CIL module *
 0001:0001924f       __ehhandler$??1HandlerSet@@UAE@XZ 1001a24f f   * CIL library *:* CIL module *
 0001:0001926a       __unwindfunclet$?parseRangeParam@@YA_NPBDAAN1AAPAD2@Z$0 1001a26a f   * CIL library *:* CIL module *
 0001:00019272       __ehhandler$?parseRangeParam@@YA_NPBDAAN1AAPAD2@Z 1001a272 f   * CIL library *:* CIL module *
 0001:0001928d       __unwindfunclet$??0MultiFramedRTPSource@@IAE@AAVUsageEnvironment@@PAVGroupsock@@EIPAVBufferedPacketFactory@@@Z$0 1001a28d f   * CIL library *:* CIL module *
 0001:00019295       __unwindfunclet$??0MultiFramedRTPSource@@IAE@AAVUsageEnvironment@@PAVGroupsock@@EIPAVBufferedPacketFactory@@@Z$1 1001a295 f   * CIL library *:* CIL module *
 0001:0001929f       __ehhandler$??0MultiFramedRTPSource@@IAE@AAVUsageEnvironment@@PAVGroupsock@@EIPAVBufferedPacketFactory@@@Z 1001a29f f   * CIL library *:* CIL module *
 0001:000192ba       __unwindfunclet$??1MultiFramedRTPSource@@MAE@XZ$0 1001a2ba f   * CIL library *:* CIL module *
 0001:000192c2       __ehhandler$??1MultiFramedRTPSource@@MAE@XZ 1001a2c2 f   * CIL library *:* CIL module *
 0001:000192dd       __unwindfunclet$??0GroupEId@@QAE@ABUin_addr@@GABVScope@@I@Z$0 1001a2dd f   * CIL library *:* CIL module *
 0001:000192e8       __ehhandler$??0GroupEId@@QAE@ABUin_addr@@GABVScope@@I@Z 1001a2e8 f   * CIL library *:* CIL module *
 0001:00019304       ??__F?_System_object@?$_Error_objects@H@std@@2V_System_error_category@2@A@@YAXXZ 1001a304 f   * CIL library *:* CIL module *
 0001:0001930f       ??__F?_Iostream_object@?$_Error_objects@H@std@@2V_Iostream_error_category@2@A@@YAXXZ 1001a30f f   * CIL library *:* CIL module *
 0001:0001931a       ??__F?_Generic_object@?$_Error_objects@H@std@@2V_Generic_error_category@2@A@@YAXXZ 1001a31a f   * CIL library *:* CIL module *
 0002:000001ec       ?_Generic_object$initializer$@?$_Error_objects@H@std@@2P6AXXZA 1001b1ec     * CIL library *:* CIL module *
 0002:000001f0       ?_Iostream_object$initializer$@?$_Error_objects@H@std@@2P6AXXZA 1001b1f0     * CIL library *:* CIL module *
 0002:000001f4       ?_System_object$initializer$@?$_Error_objects@H@std@@2P6AXXZA 1001b1f4     * CIL library *:* CIL module *
 0002:000001f8       _DELAY_MINUTE$initializer$ 1001b1f8     * CIL library *:* CIL module *
 0002:000001fc       _DELAY_HOUR$initializer$   1001b1fc     * CIL library *:* CIL module *
 0002:00000200       _DELAY_DAY$initializer$    1001b200     * CIL library *:* CIL module *
 0002:00000204       _DELAY_MINUTE$initializer$ 1001b204     * CIL library *:* CIL module *
 0002:00000208       _DELAY_HOUR$initializer$   1001b208     * CIL library *:* CIL module *
 0002:0000020c       _DELAY_DAY$initializer$    1001b20c     * CIL library *:* CIL module *
 0002:00000210       _DELAY_MINUTE$initializer$ 1001b210     * CIL library *:* CIL module *
 0002:00000214       _DELAY_HOUR$initializer$   1001b214     * CIL library *:* CIL module *
 0002:00000218       _DELAY_DAY$initializer$    1001b218     * CIL library *:* CIL module *
 0002:0000021c       _DELAY_MINUTE$initializer$ 1001b21c     * CIL library *:* CIL module *
 0002:00000220       _DELAY_HOUR$initializer$   1001b220     * CIL library *:* CIL module *
 0002:00000224       _DELAY_DAY$initializer$    1001b224     * CIL library *:* CIL module *
 0002:00000228       _DELAY_MINUTE$initializer$ 1001b228     * CIL library *:* CIL module *
 0002:0000022c       _DELAY_HOUR$initializer$   1001b22c     * CIL library *:* CIL module *
 0002:00000230       _DELAY_DAY$initializer$    1001b230     * CIL library *:* CIL module *
 0002:00000234       _DELAY_MINUTE$initializer$ 1001b234     * CIL library *:* CIL module *
 0002:00000238       _DELAY_HOUR$initializer$   1001b238     * CIL library *:* CIL module *
 0002:0000023c       _DELAY_DAY$initializer$    1001b23c     * CIL library *:* CIL module *
 0002:00000240       _DELAY_MINUTE$initializer$ 1001b240     * CIL library *:* CIL module *
 0002:00000244       _DELAY_HOUR$initializer$   1001b244     * CIL library *:* CIL module *
 0002:00000248       _DELAY_DAY$initializer$    1001b248     * CIL library *:* CIL module *
 0002:00000254       _pcinit                    1001b254     msvcrt:crtdll.obj
 0002:00000258       _pinit                     1001b258     msvcrt:atonexit.obj
 0002:00000260       ___xc_ma_a                 1001b260     msvcmrt:mstartup.obj
 0002:00000264       ?Initialized$initializer$@CurrentDomain@<CrtImplementationDetails>@@$$Q2P6MXXZA 1001b264     msvcmrt:mstartup.obj
 0002:00000268       ?Uninitialized$initializer$@CurrentDomain@<CrtImplementationDetails>@@$$Q2P6MXXZA 1001b268     msvcmrt:mstartup.obj
 0002:0000026c       ?IsDefaultDomain$initializer$@CurrentDomain@<CrtImplementationDetails>@@$$Q2P6MXXZA 1001b26c     msvcmrt:mstartup.obj
 0002:00000270       ?InitializedVtables$initializer$@CurrentDomain@<CrtImplementationDetails>@@$$Q2P6MXXZA 1001b270     msvcmrt:mstartup.obj
 0002:00000274       ?InitializedNative$initializer$@CurrentDomain@<CrtImplementationDetails>@@$$Q2P6MXXZA 1001b274     msvcmrt:mstartup.obj
 0002:00000278       ?InitializedPerProcess$initializer$@CurrentDomain@<CrtImplementationDetails>@@$$Q2P6MXXZA 1001b278     msvcmrt:mstartup.obj
 0002:0000027c       ?InitializedPerAppDomain$initializer$@CurrentDomain@<CrtImplementationDetails>@@$$Q2P6MXXZA 1001b27c     msvcmrt:mstartup.obj
 0002:00000280       ___xc_ma_z                 1001b280     msvcmrt:mstartup.obj
 0002:00000284       ___xc_mp_a                 1001b284     msvcmrt:mstartup.obj
 0002:00000288       _DELAY_MINUTE$initializer$ 1001b288     libapi.obj
 0002:0000028c       _DELAY_HOUR$initializer$   1001b28c     libapi.obj
 0002:00000290       _DELAY_DAY$initializer$    1001b290     libapi.obj
 0002:00000294       ___xc_mp_z                 1001b294     msvcmrt:mstartup.obj
 0002:00000298       ___xi_vt_a                 1001b298     msvcmrt:mstartup.obj
 0002:0000029c       ___xi_vt_z                 1001b29c     msvcmrt:mstartup.obj
 0002:000002ac       _GS_ExceptionPointers      1001b2ac     msvcrt:gs_report.obj
 0002:00000390       $SG4294967194              1001b390     * CIL library *:* CIL module *
 0002:00000399       $SG4294952024              1001b399     * CIL library *:* CIL module *
 0002:0000039a       $SG4294952010              1001b39a     * CIL library *:* CIL module *
 0002:0000039b       $SG4294952008              1001b39b     * CIL library *:* CIL module *
 0002:0000039c       $SG4294967193              1001b39c     * CIL library *:* CIL module *
 0002:0000039e       $SG4294951997              1001b39e     * CIL library *:* CIL module *
 0002:0000039f       $SG4294951996              1001b39f     * CIL library *:* CIL module *
 0002:000003a4       $SG4294962781              1001b3a4     * CIL library *:* CIL module *
 0002:000003c5       $SG4294951995              1001b3c5     * CIL library *:* CIL module *
 0002:000003c6       $SG4294951986              1001b3c6     * CIL library *:* CIL module *
 0002:000003c7       $SG4294951981              1001b3c7     * CIL library *:* CIL module *
 0002:000003c8       $SG4294962780              1001b3c8     * CIL library *:* CIL module *
 0002:000003eb       $SG4294951921              1001b3eb     * CIL library *:* CIL module *
 0002:000003ec       $SG4294962779              1001b3ec     * CIL library *:* CIL module *
 0002:0000040d       $SG4294951920              1001b40d     * CIL library *:* CIL module *
 0002:0000040e       $SG4294951919              1001b40e     * CIL library *:* CIL module *
 0002:0000040f       $SG4294951918              1001b40f     * CIL library *:* CIL module *
 0002:00000410       $SG4294962778              1001b410     * CIL library *:* CIL module *
 0002:00000431       $SG4294951863              1001b431     * CIL library *:* CIL module *
 0002:00000432       $SG4294950468              1001b432     * CIL library *:* CIL module *
 0002:00000433       $SG4294945340              1001b433     * CIL library *:* CIL module *
 0002:00000434       $SG4294962777              1001b434     * CIL library *:* CIL module *
 0002:00000461       $SG4294941776              1001b461     * CIL library *:* CIL module *
 0002:00000462       $SG4294940355              1001b462     * CIL library *:* CIL module *
 0002:00000463       $SG4294939807              1001b463     * CIL library *:* CIL module *
 0002:00000464       $SG4294962776              1001b464     * CIL library *:* CIL module *
 0002:00000485       $SG4294939805              1001b485     * CIL library *:* CIL module *
 0002:00000488       $SG4294962775              1001b488     * CIL library *:* CIL module *
 0002:000004ac       $SG4294962774              1001b4ac     * CIL library *:* CIL module *
 0002:000004d0       $SG4294962773              1001b4d0     * CIL library *:* CIL module *
 0002:000004f4       $SG4294962772              1001b4f4     * CIL library *:* CIL module *
 0002:00000514       $SG4294962771              1001b514     * CIL library *:* CIL module *
 0002:00000528       $SG4294962770              1001b528     * CIL library *:* CIL module *
 0002:00000550       $SG4294962769              1001b550     * CIL library *:* CIL module *
 0002:00000590       $SG4294962768              1001b590     * CIL library *:* CIL module *
 0002:000005a8       $SG4294962767              1001b5a8     * CIL library *:* CIL module *
 0002:000005d0       $SG4294962766              1001b5d0     * CIL library *:* CIL module *
 0002:00000600       $SG4294962765              1001b600     * CIL library *:* CIL module *
 0002:00000618       $SG4294962764              1001b618     * CIL library *:* CIL module *
 0002:00000628       $SG4294962763              1001b628     * CIL library *:* CIL module *
 0002:00000634       $SG4294962762              1001b634     * CIL library *:* CIL module *
 0002:00000654       $SG4294962761              1001b654     * CIL library *:* CIL module *
 0002:00000680       $SG4294962760              1001b680     * CIL library *:* CIL module *
 0002:0000068c       _rand_sep                  1001b68c     * CIL library *:* CIL module *
 0002:00000690       _rand_type                 1001b690     * CIL library *:* CIL module *
 0002:00000694       _rand_deg                  1001b694     * CIL library *:* CIL module *
 0002:00000698       _end_ptr                   1001b698     * CIL library *:* CIL module *
 0002:0000069c       $SG4294962249              1001b69c     * CIL library *:* CIL module *
 0002:000006a8       $SG4294958236              1001b6a8     * CIL library *:* CIL module *
 0002:000006b4       $SG4294958235              1001b6b4     * CIL library *:* CIL module *
 0002:000006bc       $SG4294958234              1001b6bc     * CIL library *:* CIL module *
 0002:000006c8       $SG4294957773              1001b6c8     * CIL library *:* CIL module *
 0002:000006d0       ?hex@?1??our_MD5End@@9@9   1001b6d0     * CIL library *:* CIL module *
 0002:000006e4       $SG4294957772              1001b6e4     * CIL library *:* CIL module *
 0002:000006f8       $SG4294957771              1001b6f8     * CIL library *:* CIL module *
 0002:00000700       $SG4294957770              1001b700     * CIL library *:* CIL module *
 0002:00000708       $SG4294957769              1001b708     * CIL library *:* CIL module *
 0002:00000710       $SG4294957768              1001b710     * CIL library *:* CIL module *
 0002:00000718       $SG4294957767              1001b718     * CIL library *:* CIL module *
 0002:00000720       $SG4294957766              1001b720     * CIL library *:* CIL module *
 0002:0000074c       $SG4294957765              1001b74c     * CIL library *:* CIL module *
 0002:0000075c       $SG4294957764              1001b75c     * CIL library *:* CIL module *
 0002:0000076c       $SG4294957763              1001b76c     * CIL library *:* CIL module *
 0002:0000077c       $SG4294957762              1001b77c     * CIL library *:* CIL module *
 0002:0000078c       $SG4294953573              1001b78c     * CIL library *:* CIL module *
 0002:000007ac       $SG4294953572              1001b7ac     * CIL library *:* CIL module *
 0002:000007d4       $SG4294953571              1001b7d4     * CIL library *:* CIL module *
 0002:000007e8       $SG4294953570              1001b7e8     * CIL library *:* CIL module *
 0002:00000800       $SG4294953569              1001b800     * CIL library *:* CIL module *
 0002:00000804       $SG4294953568              1001b804     * CIL library *:* CIL module *
 0002:00000814       $SG4294953567              1001b814     * CIL library *:* CIL module *
 0002:00000824       $SG4294953566              1001b824     * CIL library *:* CIL module *
 0002:0000083c       $SG4294953565              1001b83c     * CIL library *:* CIL module *
 0002:00000840       $SG4294953564              1001b840     * CIL library *:* CIL module *
 0002:00000854       $SG4294953563              1001b854     * CIL library *:* CIL module *
 0002:00000858       $SG4294953562              1001b858     * CIL library *:* CIL module *
 0002:0000085c       $SG4294953561              1001b85c     * CIL library *:* CIL module *
 0002:00000888       $SG4294953560              1001b888     * CIL library *:* CIL module *
 0002:0000089c       $SG4294953559              1001b89c     * CIL library *:* CIL module *
 0002:000008b0       $SG4294953558              1001b8b0     * CIL library *:* CIL module *
 0002:000008bc       $SG4294953557              1001b8bc     * CIL library *:* CIL module *
 0002:000008c8       $SG4294953556              1001b8c8     * CIL library *:* CIL module *
 0002:000008d8       $SG4294953555              1001b8d8     * CIL library *:* CIL module *
 0002:000008e8       $SG4294953554              1001b8e8     * CIL library *:* CIL module *
 0002:00000904       $SG4294953553              1001b904     * CIL library *:* CIL module *
 0002:00000924       $SG4294953552              1001b924     * CIL library *:* CIL module *
 0002:00000948       $SG4294953551              1001b948     * CIL library *:* CIL module *
 0002:00000950       $SG4294953550              1001b950     * CIL library *:* CIL module *
 0002:00000958       $SG4294953549              1001b958     * CIL library *:* CIL module *
 0002:0000095c       $SG4294953548              1001b95c     * CIL library *:* CIL module *
 0002:00000964       $SG4294953547              1001b964     * CIL library *:* CIL module *
 0002:0000096c       $SG4294953546              1001b96c     * CIL library *:* CIL module *
 0002:00000974       $SG4294953545              1001b974     * CIL library *:* CIL module *
 0002:00000978       $SG4294953544              1001b978     * CIL library *:* CIL module *
 0002:00000980       $SG4294953543              1001b980     * CIL library *:* CIL module *
 0002:00000988       $SG4294953542              1001b988     * CIL library *:* CIL module *
 0002:0000098c       $SG4294953541              1001b98c     * CIL library *:* CIL module *
 0002:00000990       $SG4294953540              1001b990     * CIL library *:* CIL module *
 0002:00000998       $SG4294953539              1001b998     * CIL library *:* CIL module *
 0002:0000099c       $SG4294953538              1001b99c     * CIL library *:* CIL module *
 0002:000009a4       $SG4294953537              1001b9a4     * CIL library *:* CIL module *
 0002:000009ac       $SG4294953536              1001b9ac     * CIL library *:* CIL module *
 0002:000009b4       $SG4294953535              1001b9b4     * CIL library *:* CIL module *
 0002:000009bc       $SG4294953534              1001b9bc     * CIL library *:* CIL module *
 0002:000009c4       $SG4294953533              1001b9c4     * CIL library *:* CIL module *
 0002:000009cc       $SG4294953532              1001b9cc     * CIL library *:* CIL module *
 0002:000009d0       $SG4294953531              1001b9d0     * CIL library *:* CIL module *
 0002:000009d8       $SG4294953530              1001b9d8     * CIL library *:* CIL module *
 0002:000009dc       $SG4294953529              1001b9dc     * CIL library *:* CIL module *
 0002:000009e4       $SG4294953528              1001b9e4     * CIL library *:* CIL module *
 0002:000009ec       $SG4294953527              1001b9ec     * CIL library *:* CIL module *
 0002:000009f0       $SG4294953526              1001b9f0     * CIL library *:* CIL module *
 0002:000009f4       $SG4294953525              1001b9f4     * CIL library *:* CIL module *
 0002:00000a00       $SG4294953524              1001ba00     * CIL library *:* CIL module *
 0002:00000a10       $SG4294953523              1001ba10     * CIL library *:* CIL module *
 0002:00000a18       $SG4294953522              1001ba18     * CIL library *:* CIL module *
 0002:00000a20       $SG4294953521              1001ba20     * CIL library *:* CIL module *
 0002:00000a48       $SG4294953520              1001ba48     * CIL library *:* CIL module *
 0002:00000a60       $SG4294953519              1001ba60     * CIL library *:* CIL module *
 0002:00000a64       $SG4294953518              1001ba64     * CIL library *:* CIL module *
 0002:00000a80       $SG4294953517              1001ba80     * CIL library *:* CIL module *
 0002:00000ac0       $SG4294953516              1001bac0     * CIL library *:* CIL module *
 0002:00000ae0       $SG4294953515              1001bae0     * CIL library *:* CIL module *
 0002:00000b00       $SG4294953514              1001bb00     * CIL library *:* CIL module *
 0002:00000b28       $SG4294953513              1001bb28     * CIL library *:* CIL module *
 0002:00000b30       $SG4294953512              1001bb30     * CIL library *:* CIL module *
 0002:00000b4c       $SG4294953511              1001bb4c     * CIL library *:* CIL module *
 0002:00000b64       $SG4294953510              1001bb64     * CIL library *:* CIL module *
 0002:00000b74       $SG4294953509              1001bb74     * CIL library *:* CIL module *
 0002:00000b7c       $SG4294953508              1001bb7c     * CIL library *:* CIL module *
 0002:00000b8c       $SG4294953507              1001bb8c     * CIL library *:* CIL module *
 0002:00000b94       $SG4294953506              1001bb94     * CIL library *:* CIL module *
 0002:00000b9c       $SG4294953505              1001bb9c     * CIL library *:* CIL module *
 0002:00000bbc       $SG4294953504              1001bbbc     * CIL library *:* CIL module *
 0002:00000bd4       $SG4294953503              1001bbd4     * CIL library *:* CIL module *
 0002:00000be8       $SG4294953502              1001bbe8     * CIL library *:* CIL module *
 0002:00000bf4       $SG4294953501              1001bbf4     * CIL library *:* CIL module *
 0002:00000c0c       $SG4294953500              1001bc0c     * CIL library *:* CIL module *
 0002:00000c2c       $SG4294953499              1001bc2c     * CIL library *:* CIL module *
 0002:00000c44       $SG4294953498              1001bc44     * CIL library *:* CIL module *
 0002:00000c5c       $SG4294953497              1001bc5c     * CIL library *:* CIL module *
 0002:00000c70       $SG4294953496              1001bc70     * CIL library *:* CIL module *
 0002:00000c84       $SG4294953495              1001bc84     * CIL library *:* CIL module *
 0002:00000c9c       $SG4294953494              1001bc9c     * CIL library *:* CIL module *
 0002:00000cb0       $SG4294953493              1001bcb0     * CIL library *:* CIL module *
 0002:00000cc4       $SG4294953492              1001bcc4     * CIL library *:* CIL module *
 0002:00000cdc       $SG4294953491              1001bcdc     * CIL library *:* CIL module *
 0002:00000cf4       $SG4294953490              1001bcf4     * CIL library *:* CIL module *
 0002:00000d08       $SG4294953489              1001bd08     * CIL library *:* CIL module *
 0002:00000d24       $SG4294953488              1001bd24     * CIL library *:* CIL module *
 0002:00000d38       $SG4294953487              1001bd38     * CIL library *:* CIL module *
 0002:00000d48       $SG4294953486              1001bd48     * CIL library *:* CIL module *
 0002:00000d68       $SG4294953485              1001bd68     * CIL library *:* CIL module *
 0002:00000d7c       $SG4294953484              1001bd7c     * CIL library *:* CIL module *
 0002:00000d98       $SG4294953483              1001bd98     * CIL library *:* CIL module *
 0002:00000dac       $SG4294953482              1001bdac     * CIL library *:* CIL module *
 0002:00000dd0       $SG4294953481              1001bdd0     * CIL library *:* CIL module *
 0002:00000de8       $SG4294953480              1001bde8     * CIL library *:* CIL module *
 0002:00000e04       $SG4294953479              1001be04     * CIL library *:* CIL module *
 0002:00000e10       $SG4294953478              1001be10     * CIL library *:* CIL module *
 0002:00000e1c       $SG4294953477              1001be1c     * CIL library *:* CIL module *
 0002:00000e28       $SG4294953476              1001be28     * CIL library *:* CIL module *
 0002:00000e2c       $SG4294953475              1001be2c     * CIL library *:* CIL module *
 0002:00000e3c       $SG4294953474              1001be3c     * CIL library *:* CIL module *
 0002:00000e54       $SG4294953473              1001be54     * CIL library *:* CIL module *
 0002:00000e6c       $SG4294953472              1001be6c     * CIL library *:* CIL module *
 0002:00000e7c       $SG4294953471              1001be7c     * CIL library *:* CIL module *
 0002:00000e8c       $SG4294953470              1001be8c     * CIL library *:* CIL module *
 0002:00000ea0       $SG4294953469              1001bea0     * CIL library *:* CIL module *
 0002:00000ea4       $SG4294953468              1001bea4     * CIL library *:* CIL module *
 0002:00000eac       $SG4294953467              1001beac     * CIL library *:* CIL module *
 0002:00000eb4       $SG4294953466              1001beb4     * CIL library *:* CIL module *
 0002:00000eb8       $SG4294953465              1001beb8     * CIL library *:* CIL module *
 0002:00000ec0       $SG4294953464              1001bec0     * CIL library *:* CIL module *
 0002:00000ec4       $SG4294953463              1001bec4     * CIL library *:* CIL module *
 0002:00000ed0       $SG4294953462              1001bed0     * CIL library *:* CIL module *
 0002:00000ee0       $SG4294953461              1001bee0     * CIL library *:* CIL module *
 0002:00000ef4       $SG4294953460              1001bef4     * CIL library *:* CIL module *
 0002:00000f00       $SG4294953459              1001bf00     * CIL library *:* CIL module *
 0002:00000f08       $SG4294953458              1001bf08     * CIL library *:* CIL module *
 0002:00000f0c       $SG4294953457              1001bf0c     * CIL library *:* CIL module *
 0002:00000f10       $SG4294953456              1001bf10     * CIL library *:* CIL module *
 0002:00000f18       $SG4294953455              1001bf18     * CIL library *:* CIL module *
 0002:00000f20       $SG4294953454              1001bf20     * CIL library *:* CIL module *
 0002:00000f30       $SG4294953453              1001bf30     * CIL library *:* CIL module *
 0002:00000f34       $SG4294953452              1001bf34     * CIL library *:* CIL module *
 0002:00000f3c       $SG4294953451              1001bf3c     * CIL library *:* CIL module *
 0002:00000f48       $SG4294953450              1001bf48     * CIL library *:* CIL module *
 0002:00000f50       $SG4294953449              1001bf50     * CIL library *:* CIL module *
 0002:00000f5c       $SG4294953448              1001bf5c     * CIL library *:* CIL module *
 0002:00000f68       $SG4294953447              1001bf68     * CIL library *:* CIL module *
 0002:00000f70       $SG4294953446              1001bf70     * CIL library *:* CIL module *
 0002:00000f74       $SG4294953445              1001bf74     * CIL library *:* CIL module *
 0002:00000f7c       $SG4294953444              1001bf7c     * CIL library *:* CIL module *
 0002:00000f84       $SG4294953443              1001bf84     * CIL library *:* CIL module *
 0002:00000f90       $SG4294953442              1001bf90     * CIL library *:* CIL module *
 0002:00000f98       $SG4294953441              1001bf98     * CIL library *:* CIL module *
 0002:00000fa0       $SG4294953440              1001bfa0     * CIL library *:* CIL module *
 0002:00000fa4       $SG4294953439              1001bfa4     * CIL library *:* CIL module *
 0002:00000fac       $SG4294953438              1001bfac     * CIL library *:* CIL module *
 0002:00000fb4       $SG4294953437              1001bfb4     * CIL library *:* CIL module *
 0002:00000fbc       $SG4294953436              1001bfbc     * CIL library *:* CIL module *
 0002:00000fc4       $SG4294953435              1001bfc4     * CIL library *:* CIL module *
 0002:00000fc8       $SG4294953434              1001bfc8     * CIL library *:* CIL module *
 0002:00000fcc       $SG4294953433              1001bfcc     * CIL library *:* CIL module *
 0002:00000fd0       $SG4294953432              1001bfd0     * CIL library *:* CIL module *
 0002:00000fd4       $SG4294953431              1001bfd4     * CIL library *:* CIL module *
 0002:00000fdc       $SG4294953430              1001bfdc     * CIL library *:* CIL module *
 0002:00000fe4       $SG4294953429              1001bfe4     * CIL library *:* CIL module *
 0002:00000fec       $SG4294953428              1001bfec     * CIL library *:* CIL module *
 0002:00000ff4       $SG4294953427              1001bff4     * CIL library *:* CIL module *
 0002:00000ffc       $SG4294953426              1001bffc     * CIL library *:* CIL module *
 0002:00001004       $SG4294953425              1001c004     * CIL library *:* CIL module *
 0002:0000100c       $SG4294953424              1001c00c     * CIL library *:* CIL module *
 0002:00001014       $SG4294953423              1001c014     * CIL library *:* CIL module *
 0002:0000101c       $SG4294953422              1001c01c     * CIL library *:* CIL module *
 0002:00001030       $SG4294953421              1001c030     * CIL library *:* CIL module *
 0002:00001044       $SG4294953420              1001c044     * CIL library *:* CIL module *
 0002:00001070       $SG4294953419              1001c070     * CIL library *:* CIL module *
 0002:00001078       $SG4294952991              1001c078     * CIL library *:* CIL module *
 0002:00001090       $SG4294952990              1001c090     * CIL library *:* CIL module *
 0002:000010a0       $SG4294952989              1001c0a0     * CIL library *:* CIL module *
 0002:000010e8       $SG4294952765              1001c0e8     * CIL library *:* CIL module *
 0002:0000110c       $SG4294952764              1001c10c     * CIL library *:* CIL module *
 0002:00001114       $SG4294952763              1001c114     * CIL library *:* CIL module *
 0002:00001118       $SG4294952762              1001c118     * CIL library *:* CIL module *
 0002:0000111c       $SG4294952761              1001c11c     * CIL library *:* CIL module *
 0002:00001120       $SG4294952760              1001c120     * CIL library *:* CIL module *
 0002:00001124       $SG4294952759              1001c124     * CIL library *:* CIL module *
 0002:00001128       $SG4294952526              1001c128     * CIL library *:* CIL module *
 0002:00001140       $SG4294952525              1001c140     * CIL library *:* CIL module *
 0002:00001164       $SG4294952524              1001c164     * CIL library *:* CIL module *
 0002:0000119c       $SG4294952302              1001c19c     * CIL library *:* CIL module *
 0002:000011d0       $SG4294952301              1001c1d0     * CIL library *:* CIL module *
 0002:000011fc       $SG4294952300              1001c1fc     * CIL library *:* CIL module *
 0002:00001204       $SG4294952299              1001c204     * CIL library *:* CIL module *
 0002:00001208       $SG4294952298              1001c208     * CIL library *:* CIL module *
 0002:0000120c       $SG4294952297              1001c20c     * CIL library *:* CIL module *
 0002:00001210       $SG4294952296              1001c210     * CIL library *:* CIL module *
 0002:00001214       $SG4294952295              1001c214     * CIL library *:* CIL module *
 0002:00001218       $SG4294952053              1001c218     * CIL library *:* CIL module *
 0002:00001224       $SG4294952052              1001c224     * CIL library *:* CIL module *
 0002:0000122c       $SG4294952051              1001c22c     * CIL library *:* CIL module *
 0002:00001238       $SG4294952050              1001c238     * CIL library *:* CIL module *
 0002:00001240       $SG4294952049              1001c240     * CIL library *:* CIL module *
 0002:00001248       $SG4294952048              1001c248     * CIL library *:* CIL module *
 0002:00001250       $SG4294952047              1001c250     * CIL library *:* CIL module *
 0002:00001258       $SG4294952046              1001c258     * CIL library *:* CIL module *
 0002:00001260       $SG4294952045              1001c260     * CIL library *:* CIL module *
 0002:00001268       $SG4294952044              1001c268     * CIL library *:* CIL module *
 0002:00001270       $SG4294952043              1001c270     * CIL library *:* CIL module *
 0002:0000127c       $SG4294952042              1001c27c     * CIL library *:* CIL module *
 0002:00001288       $SG4294952041              1001c288     * CIL library *:* CIL module *
 0002:00001294       $SG4294952040              1001c294     * CIL library *:* CIL module *
 0002:000012a4       $SG4294952039              1001c2a4     * CIL library *:* CIL module *
 0002:000012ac       $SG4294952038              1001c2ac     * CIL library *:* CIL module *
 0002:000012bc       $SG4294952037              1001c2bc     * CIL library *:* CIL module *
 0002:000012d4       $SG4294952036              1001c2d4     * CIL library *:* CIL module *
 0002:000012dc       $SG4294952035              1001c2dc     * CIL library *:* CIL module *
 0002:000012e0       $SG4294952034              1001c2e0     * CIL library *:* CIL module *
 0002:000012fc       $SG4294952033              1001c2fc     * CIL library *:* CIL module *
 0002:0000130c       $SG4294952032              1001c30c     * CIL library *:* CIL module *
 0002:00001310       $SG4294952031              1001c310     * CIL library *:* CIL module *
 0002:00001338       $SG4294952030              1001c338     * CIL library *:* CIL module *
 0002:0000133c       $SG4294952029              1001c33c     * CIL library *:* CIL module *
 0002:00001358       $SG4294952028              1001c358     * CIL library *:* CIL module *
 0002:00001368       $SG4294952027              1001c368     * CIL library *:* CIL module *
 0002:0000137c       $SG4294952026              1001c37c     * CIL library *:* CIL module *
 0002:00001398       $SG4294952025              1001c398     * CIL library *:* CIL module *
 0002:000013a4       $SG4294952023              1001c3a4     * CIL library *:* CIL module *
 0002:000013a8       $SG4294952022              1001c3a8     * CIL library *:* CIL module *
 0002:000013ac       $SG4294952021              1001c3ac     * CIL library *:* CIL module *
 0002:000013b8       $SG4294952020              1001c3b8     * CIL library *:* CIL module *
 0002:000013d0       $SG4294952019              1001c3d0     * CIL library *:* CIL module *
 0002:000013d8       $SG4294952018              1001c3d8     * CIL library *:* CIL module *
 0002:000013e0       $SG4294952017              1001c3e0     * CIL library *:* CIL module *
 0002:000013f4       $SG4294952016              1001c3f4     * CIL library *:* CIL module *
 0002:000013f8       $SG4294952015              1001c3f8     * CIL library *:* CIL module *
 0002:000013fc       $SG4294952014              1001c3fc     * CIL library *:* CIL module *
 0002:00001418       $SG4294952013              1001c418     * CIL library *:* CIL module *
 0002:00001470       $SG4294952012              1001c470     * CIL library *:* CIL module *
 0002:0000148c       $SG4294952011              1001c48c     * CIL library *:* CIL module *
 0002:00001494       $SG4294952009              1001c494     * CIL library *:* CIL module *
 0002:000014a4       $SG4294952007              1001c4a4     * CIL library *:* CIL module *
 0002:000014a8       $SG4294952006              1001c4a8     * CIL library *:* CIL module *
 0002:000014b4       $SG4294952005              1001c4b4     * CIL library *:* CIL module *
 0002:000014c8       $SG4294952004              1001c4c8     * CIL library *:* CIL module *
 0002:000014e0       $SG4294952003              1001c4e0     * CIL library *:* CIL module *
 0002:000014e4       $SG4294952002              1001c4e4     * CIL library *:* CIL module *
 0002:000014f8       $SG4294952001              1001c4f8     * CIL library *:* CIL module *
 0002:000014fc       $SG4294952000              1001c4fc     * CIL library *:* CIL module *
 0002:00001514       $SG4294951999              1001c514     * CIL library *:* CIL module *
 0002:00001518       $SG4294951998              1001c518     * CIL library *:* CIL module *
 0002:00001524       $SG4294951994              1001c524     * CIL library *:* CIL module *
 0002:0000153c       $SG4294951993              1001c53c     * CIL library *:* CIL module *
 0002:00001548       $SG4294951992              1001c548     * CIL library *:* CIL module *
 0002:00001564       $SG4294951991              1001c564     * CIL library *:* CIL module *
 0002:0000156c       $SG4294951990              1001c56c     * CIL library *:* CIL module *
 0002:00001578       $SG4294951989              1001c578     * CIL library *:* CIL module *
 0002:00001598       $SG4294951988              1001c598     * CIL library *:* CIL module *
 0002:000015a0       $SG4294951987              1001c5a0     * CIL library *:* CIL module *
 0002:000015a4       $SG4294951985              1001c5a4     * CIL library *:* CIL module *
 0002:000015cc       $SG4294951984              1001c5cc     * CIL library *:* CIL module *
 0002:000015f0       $SG4294951983              1001c5f0     * CIL library *:* CIL module *
 0002:000015f8       $SG4294951982              1001c5f8     * CIL library *:* CIL module *
 0002:00001608       $SG4294951980              1001c608     * CIL library *:* CIL module *
 0002:00001618       $SG4294951979              1001c618     * CIL library *:* CIL module *
 0002:00001628       $SG4294951978              1001c628     * CIL library *:* CIL module *
 0002:00001634       $SG4294951977              1001c634     * CIL library *:* CIL module *
 0002:00001640       $SG4294951976              1001c640     * CIL library *:* CIL module *
 0002:00001650       $SG4294951975              1001c650     * CIL library *:* CIL module *
 0002:0000166c       $SG4294951974              1001c66c     * CIL library *:* CIL module *
 0002:00001674       $SG4294951973              1001c674     * CIL library *:* CIL module *
 0002:00001678       $SG4294951972              1001c678     * CIL library *:* CIL module *
 0002:00001680       $SG4294951971              1001c680     * CIL library *:* CIL module *
 0002:00001684       $SG4294951970              1001c684     * CIL library *:* CIL module *
 0002:00001690       $SG4294951969              1001c690     * CIL library *:* CIL module *
 0002:00001694       $SG4294951966              1001c694     * CIL library *:* CIL module *
 0002:000016c0       $SG4294951968              1001c6c0     * CIL library *:* CIL module *
 0002:00001728       $SG4294951967              1001c728     * CIL library *:* CIL module *
 0002:000017d4       $SG4294951965              1001c7d4     * CIL library *:* CIL module *
 0002:000017dc       $SG4294951964              1001c7dc     * CIL library *:* CIL module *
 0002:000017e4       $SG4294951963              1001c7e4     * CIL library *:* CIL module *
 0002:000017ec       $SG4294951962              1001c7ec     * CIL library *:* CIL module *
 0002:00001810       $SG4294951961              1001c810     * CIL library *:* CIL module *
 0002:00001824       $SG4294951960              1001c824     * CIL library *:* CIL module *
 0002:00001828       $SG4294951959              1001c828     * CIL library *:* CIL module *
 0002:0000182c       $SG4294951958              1001c82c     * CIL library *:* CIL module *
 0002:00001834       $SG4294951957              1001c834     * CIL library *:* CIL module *
 0002:0000185c       $SG4294951956              1001c85c     * CIL library *:* CIL module *
 0002:00001860       $SG4294951955              1001c860     * CIL library *:* CIL module *
 0002:00001874       $SG4294951954              1001c874     * CIL library *:* CIL module *
 0002:0000187c       $SG4294951953              1001c87c     * CIL library *:* CIL module *
 0002:00001888       $SG4294951952              1001c888     * CIL library *:* CIL module *
 0002:00001894       $SG4294951951              1001c894     * CIL library *:* CIL module *
 0002:000018b8       $SG4294951950              1001c8b8     * CIL library *:* CIL module *
 0002:000018bc       $SG4294951949              1001c8bc     * CIL library *:* CIL module *
 0002:000018ec       $SG4294951948              1001c8ec     * CIL library *:* CIL module *
 0002:000018f4       $SG4294951947              1001c8f4     * CIL library *:* CIL module *
 0002:00001904       $SG4294951946              1001c904     * CIL library *:* CIL module *
 0002:00001914       $SG4294951945              1001c914     * CIL library *:* CIL module *
 0002:0000191c       $SG4294951944              1001c91c     * CIL library *:* CIL module *
 0002:00001930       $SG4294951943              1001c930     * CIL library *:* CIL module *
 0002:00001938       $SG4294951942              1001c938     * CIL library *:* CIL module *
 0002:00001948       $SG4294951941              1001c948     * CIL library *:* CIL module *
 0002:00001958       $SG4294951940              1001c958     * CIL library *:* CIL module *
 0002:00001964       $SG4294951939              1001c964     * CIL library *:* CIL module *
 0002:00001968       $SG4294951938              1001c968     * CIL library *:* CIL module *
 0002:0000196c       $SG4294951937              1001c96c     * CIL library *:* CIL module *
 0002:00001974       $SG4294951936              1001c974     * CIL library *:* CIL module *
 0002:0000197c       $SG4294951935              1001c97c     * CIL library *:* CIL module *
 0002:00001988       $SG4294951934              1001c988     * CIL library *:* CIL module *
 0002:00001990       $SG4294951933              1001c990     * CIL library *:* CIL module *
 0002:000019b4       $SG4294951932              1001c9b4     * CIL library *:* CIL module *
 0002:000019c4       $SG4294951931              1001c9c4     * CIL library *:* CIL module *
 0002:000019e8       $SG4294951930              1001c9e8     * CIL library *:* CIL module *
 0002:000019fc       $SG4294951929              1001c9fc     * CIL library *:* CIL module *
 0002:00001a10       $SG4294951928              1001ca10     * CIL library *:* CIL module *
 0002:00001a28       $SG4294951927              1001ca28     * CIL library *:* CIL module *
 0002:00001a48       $SG4294951926              1001ca48     * CIL library *:* CIL module *
 0002:00001a6c       $SG4294951925              1001ca6c     * CIL library *:* CIL module *
 0002:00001a80       $SG4294951924              1001ca80     * CIL library *:* CIL module *
 0002:00001a90       $SG4294951923              1001ca90     * CIL library *:* CIL module *
 0002:00001a94       $SG4294951922              1001ca94     * CIL library *:* CIL module *
 0002:00001a98       $SG4294951917              1001ca98     * CIL library *:* CIL module *
 0002:00001a9c       $SG4294951916              1001ca9c     * CIL library *:* CIL module *
 0002:00001acc       $SG4294951915              1001cacc     * CIL library *:* CIL module *
 0002:00001ad0       $SG4294951914              1001cad0     * CIL library *:* CIL module *
 0002:00001ad4       $SG4294951913              1001cad4     * CIL library *:* CIL module *
 0002:00001adc       $SG4294951912              1001cadc     * CIL library *:* CIL module *
 0002:00001afc       $SG4294951911              1001cafc     * CIL library *:* CIL module *
 0002:00001b00       $SG4294951910              1001cb00     * CIL library *:* CIL module *
 0002:00001b04       $SG4294951909              1001cb04     * CIL library *:* CIL module *
 0002:00001b24       $SG4294951907              1001cb24     * CIL library *:* CIL module *
 0002:00001b30       $SG4294951908              1001cb30     * CIL library *:* CIL module *
 0002:00001b78       $SG4294951906              1001cb78     * CIL library *:* CIL module *
 0002:00001b98       $SG4294951905              1001cb98     * CIL library *:* CIL module *
 0002:00001ba0       $SG4294951904              1001cba0     * CIL library *:* CIL module *
 0002:00001ba4       $SG4294951903              1001cba4     * CIL library *:* CIL module *
 0002:00001ba8       $SG4294951902              1001cba8     * CIL library *:* CIL module *
 0002:00001bc0       $SG4294951901              1001cbc0     * CIL library *:* CIL module *
 0002:00001bc8       $SG4294951900              1001cbc8     * CIL library *:* CIL module *
 0002:00001bf8       $SG4294951899              1001cbf8     * CIL library *:* CIL module *
 0002:00001c0c       $SG4294951897              1001cc0c     * CIL library *:* CIL module *
 0002:00001c1c       $SG4294951896              1001cc1c     * CIL library *:* CIL module *
 0002:00001c20       $SG4294951898              1001cc20     * CIL library *:* CIL module *
 0002:00001c78       $SG4294951895              1001cc78     * CIL library *:* CIL module *
 0002:00001c7c       $SG4294951894              1001cc7c     * CIL library *:* CIL module *
 0002:00001c9c       $SG4294951893              1001cc9c     * CIL library *:* CIL module *
 0002:00001cac       $SG4294951892              1001ccac     * CIL library *:* CIL module *
 0002:00001cb8       $SG4294951891              1001ccb8     * CIL library *:* CIL module *
 0002:00001cc4       $SG4294951890              1001ccc4     * CIL library *:* CIL module *
 0002:00001ccc       $SG4294951889              1001cccc     * CIL library *:* CIL module *
 0002:00001cd4       $SG4294951888              1001ccd4     * CIL library *:* CIL module *
 0002:00001ce0       $SG4294951887              1001cce0     * CIL library *:* CIL module *
 0002:00001cf4       $SG4294951886              1001ccf4     * CIL library *:* CIL module *
 0002:00001cfc       $SG4294951885              1001ccfc     * CIL library *:* CIL module *
 0002:00001d04       $SG4294951884              1001cd04     * CIL library *:* CIL module *
 0002:00001d0c       $SG4294951883              1001cd0c     * CIL library *:* CIL module *
 0002:00001d18       $SG4294951882              1001cd18     * CIL library *:* CIL module *
 0002:00001d7c       $SG4294951881              1001cd7c     * CIL library *:* CIL module *
 0002:00001d8c       $SG4294951880              1001cd8c     * CIL library *:* CIL module *
 0002:00001da0       $SG4294951879              1001cda0     * CIL library *:* CIL module *
 0002:00001dac       $SG4294951878              1001cdac     * CIL library *:* CIL module *
 0002:00001dc8       $SG4294951877              1001cdc8     * CIL library *:* CIL module *
 0002:00001dd8       $SG4294951876              1001cdd8     * CIL library *:* CIL module *
 0002:00001df0       $SG4294951875              1001cdf0     * CIL library *:* CIL module *
 0002:00001dfc       $SG4294951874              1001cdfc     * CIL library *:* CIL module *
 0002:00001e08       $SG4294951873              1001ce08     * CIL library *:* CIL module *
 0002:00001e0c       $SG4294951872              1001ce0c     * CIL library *:* CIL module *
 0002:00001e14       $SG4294951871              1001ce14     * CIL library *:* CIL module *
 0002:00001e28       $SG4294951870              1001ce28     * CIL library *:* CIL module *
 0002:00001e30       $SG4294951869              1001ce30     * CIL library *:* CIL module *
 0002:00001e38       $SG4294951868              1001ce38     * CIL library *:* CIL module *
 0002:00001e44       $SG4294951867              1001ce44     * CIL library *:* CIL module *
 0002:00001e54       $SG4294951866              1001ce54     * CIL library *:* CIL module *
 0002:00001e58       $SG4294951865              1001ce58     * CIL library *:* CIL module *
 0002:00001e60       $SG4294951864              1001ce60     * CIL library *:* CIL module *
 0002:00001e6c       $SG4294951194              1001ce6c     * CIL library *:* CIL module *
 0002:00001e7c       $SG4294951193              1001ce7c     * CIL library *:* CIL module *
 0002:00001e84       $SG4294951192              1001ce84     * CIL library *:* CIL module *
 0002:00001e90       $SG4294950948              1001ce90     * CIL library *:* CIL module *
 0002:00001e9c       $SG4294950662              1001ce9c     * CIL library *:* CIL module *
 0002:00001eac       $SG4294950469              1001ceac     * CIL library *:* CIL module *
 0002:00001ec4       $SG4294950187              1001cec4     * CIL library *:* CIL module *
 0002:00001ed4       $SG4294949933              1001ced4     * CIL library *:* CIL module *
 0002:00001edc       $SG4294949741              1001cedc     * CIL library *:* CIL module *
 0002:00001ee8       $SG4294949404              1001cee8     * CIL library *:* CIL module *
 0002:00001ef4       $SG4294949213              1001cef4     * CIL library *:* CIL module *
 0002:00001f04       $SG4294948966              1001cf04     * CIL library *:* CIL module *
 0002:00001f18       $SG4294948965              1001cf18     * CIL library *:* CIL module *
 0002:00001f24       $SG4294948964              1001cf24     * CIL library *:* CIL module *
 0002:00001f44       $SG4294948963              1001cf44     * CIL library *:* CIL module *
 0002:00001f7c       $SG4294948962              1001cf7c     * CIL library *:* CIL module *
 0002:00001f80       $SG4294948961              1001cf80     * CIL library *:* CIL module *
 0002:00001f84       $SG4294948960              1001cf84     * CIL library *:* CIL module *
 0002:00001f90       $SG4294948959              1001cf90     * CIL library *:* CIL module *
 0002:00001fa4       $SG4294948958              1001cfa4     * CIL library *:* CIL module *
 0002:00001fc0       $SG4294948957              1001cfc0     * CIL library *:* CIL module *
 0002:00001fec       $SG4294948956              1001cfec     * CIL library *:* CIL module *
 0002:00002014       $SG4294948483              1001d014     * CIL library *:* CIL module *
 0002:00002020       $SG4294948289              1001d020     * CIL library *:* CIL module *
 0002:0000202c       $SG4294948098              1001d02c     * CIL library *:* CIL module *
 0002:00002040       $SG4294948097              1001d040     * CIL library *:* CIL module *
 0002:0000205c       $SG4294947742              1001d05c     * CIL library *:* CIL module *
 0002:0000206c       $SG4294947318              1001d06c     * CIL library *:* CIL module *
 0002:00002094       $SG4294947317              1001d094     * CIL library *:* CIL module *
 0002:000020a8       $SG4294947113              1001d0a8     * CIL library *:* CIL module *
 0002:000020b4       _lum_dc_symbols            1001d0b4     * CIL library *:* CIL module *
 0002:000020c0       _defaultQuantizers         1001d0c0     * CIL library *:* CIL module *
 0002:00002140       _chm_ac_symbols            1001d140     * CIL library *:* CIL module *
 0002:000021e4       _chm_dc_codelens           1001d1e4     * CIL library *:* CIL module *
 0002:000021f4       _lum_ac_codelens           1001d1f4     * CIL library *:* CIL module *
 0002:00002204       _chm_dc_symbols            1001d204     * CIL library *:* CIL module *
 0002:00002210       _chm_ac_codelens           1001d210     * CIL library *:* CIL module *
 0002:00002220       _lum_ac_symbols            1001d220     * CIL library *:* CIL module *
 0002:000022c4       _lum_dc_codelens           1001d2c4     * CIL library *:* CIL module *
 0002:000022d4       $SG4294946853              1001d2d4     * CIL library *:* CIL module *
 0002:000022e0       $SG4294946662              1001d2e0     * CIL library *:* CIL module *
 0002:000022f4       $SG4294946661              1001d2f4     * CIL library *:* CIL module *
 0002:000022fc       $SG4294946660              1001d2fc     * CIL library *:* CIL module *
 0002:00002304       $SG4294946659              1001d304     * CIL library *:* CIL module *
 0002:00002344       $SG4294946658              1001d344     * CIL library *:* CIL module *
 0002:00002348       $SG4294946657              1001d348     * CIL library *:* CIL module *
 0002:0000237c       $SG4294946656              1001d37c     * CIL library *:* CIL module *
 0002:0000238c       $SG4294946655              1001d38c     * CIL library *:* CIL module *
 0002:00002390       $SG4294946654              1001d390     * CIL library *:* CIL module *
 0002:00002394       $SG4294946653              1001d394     * CIL library *:* CIL module *
 0002:00002398       $SG4294946410              1001d398     * CIL library *:* CIL module *
 0002:000023e8       $SG4294946409              1001d3e8     * CIL library *:* CIL module *
 0002:00002400       $SG4294946408              1001d400     * CIL library *:* CIL module *
 0002:00002464       $SG4294946011              1001d464     * CIL library *:* CIL module *
 0002:00002470       $SG4294945820              1001d470     * CIL library *:* CIL module *
 0002:000024d8       $SG4294945819              1001d4d8     * CIL library *:* CIL module *
 0002:00002520       $SG4294945818              1001d520     * CIL library *:* CIL module *
 0002:00002538       $SG4294945817              1001d538     * CIL library *:* CIL module *
 0002:00002578       $SG4294945816              1001d578     * CIL library *:* CIL module *
 0002:00002590       $SG4294945815              1001d590     * CIL library *:* CIL module *
 0002:00002644       $SG4294945814              1001d644     * CIL library *:* CIL module *
 0002:00002654       $SG4294945813              1001d654     * CIL library *:* CIL module *
 0002:00002660       $SG4294945812              1001d660     * CIL library *:* CIL module *
 0002:0000269c       $SG4294945811              1001d69c     * CIL library *:* CIL module *
 0002:000026a0       _frameBytesFromFTWideband  1001d6a0     * CIL library *:* CIL module *
 0002:000026c0       _frameBitsFromFTWideband   1001d6c0     * CIL library *:* CIL module *
 0002:000026e0       _frameBitsFromFT           1001d6e0     * CIL library *:* CIL module *
 0002:00002700       _frameBytesFromFT          1001d700     * CIL library *:* CIL module *
 0002:00002720       $SG4294945365              1001d720     * CIL library *:* CIL module *
 0002:00002740       $SG4294945364              1001d740     * CIL library *:* CIL module *
 0002:00002744       $SG4294945363              1001d744     * CIL library *:* CIL module *
 0002:00002760       $SG4294945362              1001d760     * CIL library *:* CIL module *
 0002:00002764       $SG4294945361              1001d764     * CIL library *:* CIL module *
 0002:00002790       $SG4294945360              1001d790     * CIL library *:* CIL module *
 0002:00002794       $SG4294945359              1001d794     * CIL library *:* CIL module *
 0002:000027a0       $SG4294945358              1001d7a0     * CIL library *:* CIL module *
 0002:000027b4       $SG4294945357              1001d7b4     * CIL library *:* CIL module *
 0002:000027d4       $SG4294945356              1001d7d4     * CIL library *:* CIL module *
 0002:000027f0       $SG4294945355              1001d7f0     * CIL library *:* CIL module *
 0002:000027f4       $SG4294945354              1001d7f4     * CIL library *:* CIL module *
 0002:00002800       $SG4294945353              1001d800     * CIL library *:* CIL module *
 0002:0000280c       $SG4294945352              1001d80c     * CIL library *:* CIL module *
 0002:00002818       $SG4294945351              1001d818     * CIL library *:* CIL module *
 0002:00002828       $SG4294945350              1001d828     * CIL library *:* CIL module *
 0002:00002838       $SG4294945349              1001d838     * CIL library *:* CIL module *
 0002:00002844       $SG4294945348              1001d844     * CIL library *:* CIL module *
 0002:00002848       $SG4294945347              1001d848     * CIL library *:* CIL module *
 0002:00002864       $SG4294945346              1001d864     * CIL library *:* CIL module *
 0002:0000287c       $SG4294945345              1001d87c     * CIL library *:* CIL module *
 0002:00002884       $SG4294945344              1001d884     * CIL library *:* CIL module *
 0002:00002894       $SG4294945343              1001d894     * CIL library *:* CIL module *
 0002:000028a4       $SG4294945342              1001d8a4     * CIL library *:* CIL module *
 0002:000028b0       $SG4294945341              1001d8b0     * CIL library *:* CIL module *
 0002:000028b4       $SG4294945339              1001d8b4     * CIL library *:* CIL module *
 0002:000028c0       $SG4294945338              1001d8c0     * CIL library *:* CIL module *
 0002:000028c4       $SG4294945337              1001d8c4     * CIL library *:* CIL module *
 0002:000028c8       $SG4294945336              1001d8c8     * CIL library *:* CIL module *
 0002:000028cc       $SG4294945335              1001d8cc     * CIL library *:* CIL module *
 0002:000028dc       $SG4294945334              1001d8dc     * CIL library *:* CIL module *
 0002:000028e0       $SG4294945333              1001d8e0     * CIL library *:* CIL module *
 0002:000028e4       $SG4294945332              1001d8e4     * CIL library *:* CIL module *
 0002:00002904       $SG4294945331              1001d904     * CIL library *:* CIL module *
 0002:00002934       $SG4294942191              1001d934     * CIL library *:* CIL module *
 0002:00002940       $SG4294942005              1001d940     * CIL library *:* CIL module *
 0002:00002954       $SG4294941778              1001d954     * CIL library *:* CIL module *
 0002:00002970       $SG4294941777              1001d970     * CIL library *:* CIL module *
 0002:00002988       $SG4294940884              1001d988     * CIL library *:* CIL module *
 0002:00002990       $SG4294940883              1001d990     * CIL library *:* CIL module *
 0002:0000299c       $SG4294940882              1001d99c     * CIL library *:* CIL module *
 0002:000029ac       $SG4294940881              1001d9ac     * CIL library *:* CIL module *
 0002:000029b0       $SG4294940880              1001d9b0     * CIL library *:* CIL module *
 0002:000029b4       $SG4294940879              1001d9b4     * CIL library *:* CIL module *
 0002:000029c4       $SG4294940878              1001d9c4     * CIL library *:* CIL module *
 0002:000029d0       $SG4294940877              1001d9d0     * CIL library *:* CIL module *
 0002:000029dc       $SG4294940876              1001d9dc     * CIL library *:* CIL module *
 0002:000029e8       $SG4294940875              1001d9e8     * CIL library *:* CIL module *
 0002:000029f4       $SG4294940874              1001d9f4     * CIL library *:* CIL module *
 0002:00002a00       $SG4294940873              1001da00     * CIL library *:* CIL module *
 0002:00002a08       $SG4294940872              1001da08     * CIL library *:* CIL module *
 0002:00002a30       _base64Char                1001da30     * CIL library *:* CIL module *
 0002:00002a74       $SG4294940633              1001da74     * CIL library *:* CIL module *
 0002:00002aa0       $SG4294940635              1001daa0     * CIL library *:* CIL module *
 0002:00002b0c       $SG4294940634              1001db0c     * CIL library *:* CIL module *
 0002:00002b14       _live_freqs                1001db14     * CIL library *:* CIL module *
 0002:00002b3c       $SG4294939811              1001db3c     * CIL library *:* CIL module *
 0002:00002b50       $SG4294940632              1001db50     * CIL library *:* CIL module *
 0002:00002bc0       _bandInfo                  1001dbc0     * CIL library *:* CIL module *
 0002:000033a0       _live_tabsel               1001e3a0     * CIL library *:* CIL module *
 0002:00003520       _singleBitMask             1001e520     * CIL library *:* CIL module *
 0002:00003528       $SG4294939810              1001e528     * CIL library *:* CIL module *
 0002:0000352c       $SG4294939809              1001e52c     * CIL library *:* CIL module *
 0002:00003534       $SG4294939808              1001e534     * CIL library *:* CIL module *
 0002:00003538       $SG4294939806              1001e538     * CIL library *:* CIL module *
 0002:00003550       $SG4294939515              1001e550     * CIL library *:* CIL module *
 0002:0000355c       $SG4294939344              1001e55c     * CIL library *:* CIL module *
 0002:00003564       $SG4294939173              1001e564     * CIL library *:* CIL module *
 0002:00003568       $SG4294939172              1001e568     * CIL library *:* CIL module *
 0002:0000357c       $SG4294939171              1001e57c     * CIL library *:* CIL module *
 0002:00003584       $SG4294939170              1001e584     * CIL library *:* CIL module *
 0002:0000358c       $SG4294939169              1001e58c     * CIL library *:* CIL module *
 0002:00003590       $SG4294939168              1001e590     * CIL library *:* CIL module *
 0002:00003598       $SG4294939167              1001e598     * CIL library *:* CIL module *
 0002:000035a4       $SG4294939166              1001e5a4     * CIL library *:* CIL module *
 0002:000035b0       $SG4294939165              1001e5b0     * CIL library *:* CIL module *
 0002:000035d0       _stab                      1001e5d0     * CIL library *:* CIL module *
 0002:00003618       _slen                      1001e618     * CIL library *:* CIL module *
 0002:00003640       _ETERNITY                  1001e640     * CIL library *:* CIL module *
 0002:00004aa0       _Int32ToUInt32             1001faa0     msvcrt:ftol3.obj
 0002:00004ab0       _MantissaMask              1001fab0     msvcrt:ftol3.obj
 0002:00004ab8       _IntegerBit                1001fab8     msvcrt:ftol3.obj
 0002:00004ac0       _SignBit64                 1001fac0     msvcrt:ftol3.obj
 0002:00004ac8       _MinFP64                   1001fac8     msvcrt:ftol3.obj
 0002:00004ad0       _MinInt64                  1001fad0     msvcrt:ftol3.obj
 0002:00004ad8       _MaxInt64                  1001fad8     msvcrt:ftol3.obj
 0002:00004ae0       _MaxUInt64                 1001fae0     msvcrt:ftol3.obj
 0002:00004ae8       _MaxFP32                   1001fae8     msvcrt:ftol3.obj
 0002:00004af0       _MinFP32                   1001faf0     msvcrt:ftol3.obj
 0002:00004af8       _MinSubInexact             1001faf8     msvcrt:ftol3.obj
 0002:00004b00       _FpExcptTable              1001fb00     msvcrt:ftol3.obj
 0002:00004b10       _i1075                     1001fb10     msvcrt:ftol3.obj
 0002:00004b14       _i1087                     1001fb14     msvcrt:ftol3.obj
 0002:00004b18       _x0800                     1001fb18     msvcrt:ftol3.obj
 0002:00004b1c       _x17FF                     1001fb1c     msvcrt:ftol3.obj
 0002:00004b20       _CWMask                    1001fb20     msvcrt:ftol3.obj
 0002:000106d8       __ehfuncinfo$??0Socket@@IAE@AAVUsageEnvironment@@VPort@@@Z 1002b6d8     * CIL library *:* CIL module *
 0002:000106fc       __unwindtable$??0Socket@@IAE@AAVUsageEnvironment@@VPort@@@Z 1002b6fc     * CIL library *:* CIL module *
 0002:00010704       __ehfuncinfo$?_Copy@?$basic_string@DU?$char_traits@D@std@@V?$allocator@D@2@@std@@QAEXII@Z 1002b704     * CIL library *:* CIL module *
 0002:00010728       __unwindtable$?_Copy@?$basic_string@DU?$char_traits@D@std@@V?$allocator@D@2@@std@@QAEXII@Z 1002b728     * CIL library *:* CIL module *
 0002:00010748       __tryblocktable$?_Copy@?$basic_string@DU?$char_traits@D@std@@V?$allocator@D@2@@std@@QAEXII@Z 1002b748     * CIL library *:* CIL module *
 0002:00010770       __catchsym$?_Copy@?$basic_string@DU?$char_traits@D@std@@V?$allocator@D@2@@std@@QAEXII@Z$4 1002b770     * CIL library *:* CIL module *
 0002:00010780       __catchsym$?_Copy@?$basic_string@DU?$char_traits@D@std@@V?$allocator@D@2@@std@@QAEXII@Z$5 1002b780     * CIL library *:* CIL module *
 0002:00010790       __ehfuncinfo$??1DelayQueue@@UAE@XZ 1002b790     * CIL library *:* CIL module *
 0002:000107b4       __unwindtable$??1DelayQueue@@UAE@XZ 1002b7b4     * CIL library *:* CIL module *
 0002:000107bc       __ehfuncinfo$??0NetAddressList@@QAE@PBD@Z 1002b7bc     * CIL library *:* CIL module *
 0002:000107e0       __unwindtable$??0NetAddressList@@QAE@PBD@Z 1002b7e0     * CIL library *:* CIL module *
 0002:000107f0       __ehfuncinfo$?Create@MetadataCollector@onvifmp@@SA?AV?$function@$$A6A?AV?$shared_ptr@VMetadataCollector@onvifmp@@@std@@PAVVirtualSink@onvifmp@@@Z@std@@XZ 1002b7f0     * CIL library *:* CIL module *
 0002:000107f0       __ehfuncinfo$?Create@VideoDecoder@onvifmp@@SA?AV?$function@$$A6A?AV?$shared_ptr@VVideoDecoder@onvifmp@@@std@@PAVVirtualSink@onvifmp@@@Z@std@@W4CodecID@@PBD@Z 1002b7f0     * CIL library *:* CIL module *
 0002:00010814       __unwindtable$?Create@VideoDecoder@onvifmp@@SA?AV?$function@$$A6A?AV?$shared_ptr@VVideoDecoder@onvifmp@@@std@@PAVVirtualSink@onvifmp@@@Z@std@@W4CodecID@@PBD@Z 1002b814     * CIL library *:* CIL module *
 0002:00010814       __unwindtable$?Create@MetadataCollector@onvifmp@@SA?AV?$function@$$A6A?AV?$shared_ptr@VMetadataCollector@onvifmp@@@std@@PAVVirtualSink@onvifmp@@@Z@std@@XZ 1002b814     * CIL library *:* CIL module *
 0002:0001081c       __ehfuncinfo$??$make_shared@VMetadataCollector@onvifmp@@$$$V@std@@YA?AV?$shared_ptr@VMetadataCollector@onvifmp@@@0@XZ 1002b81c     * CIL library *:* CIL module *
 0002:00010840       __unwindtable$??$make_shared@VMetadataCollector@onvifmp@@$$$V@std@@YA?AV?$shared_ptr@VMetadataCollector@onvifmp@@@0@XZ 1002b840     * CIL library *:* CIL module *
 0002:00010868       __ehfuncinfo$?CreateNew@VirtualSink@onvifmp@@SAPAV12@AAVUsageEnvironment@@I@Z 1002b868     * CIL library *:* CIL module *
 0002:0001088c       __unwindtable$?CreateNew@VirtualSink@onvifmp@@SAPAV12@AAVUsageEnvironment@@I@Z 1002b88c     * CIL library *:* CIL module *
 0002:000108a4       __tryblocktable$?CreateNew@VirtualSink@onvifmp@@SAPAV12@AAVUsageEnvironment@@I@Z 1002b8a4     * CIL library *:* CIL module *
 0002:000108b8       __catchsym$?CreateNew@VirtualSink@onvifmp@@SAPAV12@AAVUsageEnvironment@@I@Z$3 1002b8b8     * CIL library *:* CIL module *
 0002:000108c8       __ehfuncinfo$?AddFrameProcessor@VirtualSink@onvifmp@@QAEXV?$function@$$A6A?AV?$shared_ptr@VIFrameProcessor@onvifmp@@@std@@PAVVirtualSink@onvifmp@@@Z@std@@@Z 1002b8c8     * CIL library *:* CIL module *
 0002:000108ec       __unwindtable$?AddFrameProcessor@VirtualSink@onvifmp@@QAEXV?$function@$$A6A?AV?$shared_ptr@VIFrameProcessor@onvifmp@@@std@@PAVVirtualSink@onvifmp@@@Z@std@@@Z 1002b8ec     * CIL library *:* CIL module *
 0002:000108f4       __ehfuncinfo$??0VirtualSink@onvifmp@@IAE@AAVUsageEnvironment@@I@Z 1002b8f4     * CIL library *:* CIL module *
 0002:00010918       __unwindtable$??0VirtualSink@onvifmp@@IAE@AAVUsageEnvironment@@I@Z 1002b918     * CIL library *:* CIL module *
 0002:00010928       __ehfuncinfo$?CreateNew@H264VirtualSink@onvifmp@@SAPAV12@AAVUsageEnvironment@@I@Z 1002b928     * CIL library *:* CIL module *
 0002:0001094c       __unwindtable$?CreateNew@H264VirtualSink@onvifmp@@SAPAV12@AAVUsageEnvironment@@I@Z 1002b94c     * CIL library *:* CIL module *
 0002:00010964       __tryblocktable$?CreateNew@H264VirtualSink@onvifmp@@SAPAV12@AAVUsageEnvironment@@I@Z 1002b964     * CIL library *:* CIL module *
 0002:00010978       __catchsym$?CreateNew@H264VirtualSink@onvifmp@@SAPAV12@AAVUsageEnvironment@@I@Z$4 1002b978     * CIL library *:* CIL module *
 0002:00010988       __ehfuncinfo$?Init@VideoDecoder@onvifmp@@QAE_NPAVVirtualSink@2@PAUAVCodec@@PBD@Z 1002b988     * CIL library *:* CIL module *
 0002:000109ac       __unwindtable$?Init@VideoDecoder@onvifmp@@QAE_NPAVVirtualSink@2@PAUAVCodec@@PBD@Z 1002b9ac     * CIL library *:* CIL module *
 0002:000109bc       __tryblocktable$?Init@VideoDecoder@onvifmp@@QAE_NPAVVirtualSink@2@PAUAVCodec@@PBD@Z 1002b9bc     * CIL library *:* CIL module *
 0002:000109d0       __catchsym$?Init@VideoDecoder@onvifmp@@QAE_NPAVVirtualSink@2@PAUAVCodec@@PBD@Z$2 1002b9d0     * CIL library *:* CIL module *
 0002:000109e0       __ehfuncinfo$??R<lambda_6f17768ec1e816bdad31c3395b38e95e>@@QBE?AV?$shared_ptr@VVideoDecoder@onvifmp@@@std@@PAVVirtualSink@onvifmp@@@Z 1002b9e0     * CIL library *:* CIL module *
 0002:00010a04       __unwindtable$??R<lambda_6f17768ec1e816bdad31c3395b38e95e>@@QBE?AV?$shared_ptr@VVideoDecoder@onvifmp@@@std@@PAVVirtualSink@onvifmp@@@Z 1002ba04     * CIL library *:* CIL module *
 0002:00010a0c       __ehfuncinfo$?Create@VideoRenderer@onvifmp@@SA?AV?$function@$$A6A?AV?$shared_ptr@VIVideoRenderer@onvifmp@@@std@@PAVVideoDecoder@onvifmp@@@Z@std@@V?$shared_ptr@VVideoBuffer@onvifmp@@@4@@Z 1002ba0c     * CIL library *:* CIL module *
 0002:00010a30       __unwindtable$?Create@VideoRenderer@onvifmp@@SA?AV?$function@$$A6A?AV?$shared_ptr@VIVideoRenderer@onvifmp@@@std@@PAVVideoDecoder@onvifmp@@@Z@std@@V?$shared_ptr@VVideoBuffer@onvifmp@@@4@@Z 1002ba30     * CIL library *:* CIL module *
 0002:00010a48       __sehtable$?RenderFrame@VideoRenderer@onvifmp@@MAEXPAUAVCodecContext@@PAUAVFrame@@@Z 1002ba48     * CIL library *:* CIL module *
 0002:00010a64       __ehfuncinfo$?SetMetadataOutput@Live555@onvifmp@@QAEXV?$function@$$A6AXPAXH_NH@Z@std@@@Z 1002ba64     * CIL library *:* CIL module *
 0002:00010a88       __unwindtable$?SetMetadataOutput@Live555@onvifmp@@QAEXV?$function@$$A6AXPAXH_NH@Z@std@@@Z 1002ba88     * CIL library *:* CIL module *
 0002:00010a90       __ehfuncinfo$?InitVideoSubsession@Live555@onvifmp@@IAE?AV?$function@$$A6A?AV?$shared_ptr@VIFrameProcessor@onvifmp@@@std@@PAVVirtualSink@onvifmp@@@Z@std@@W4CodecID@@PBD@Z 1002ba90     * CIL library *:* CIL module *
 0002:00010ab4       __unwindtable$?InitVideoSubsession@Live555@onvifmp@@IAE?AV?$function@$$A6A?AV?$shared_ptr@VIFrameProcessor@onvifmp@@@std@@PAVVirtualSink@onvifmp@@@Z@std@@W4CodecID@@PBD@Z 1002bab4     * CIL library *:* CIL module *
 0002:00010aec       __ehfuncinfo$??R<lambda_de1d15fe10d4d9865796d6851c4d8d4d>@@QBE?AV?$shared_ptr@VIFrameProcessor@onvifmp@@@std@@PAVVirtualSink@onvifmp@@@Z 1002baec     * CIL library *:* CIL module *
 0002:00010b10       __unwindtable$??R<lambda_de1d15fe10d4d9865796d6851c4d8d4d>@@QBE?AV?$shared_ptr@VIFrameProcessor@onvifmp@@@std@@PAVVirtualSink@onvifmp@@@Z 1002bb10     * CIL library *:* CIL module *
 0002:00010b20       __ehfuncinfo$?InitMetadataSubsession@Live555@onvifmp@@IAE?AV?$function@$$A6A?AV?$shared_ptr@VIFrameProcessor@onvifmp@@@std@@PAVVirtualSink@onvifmp@@@Z@std@@PBD@Z 1002bb20     * CIL library *:* CIL module *
 0002:00010b44       __unwindtable$?InitMetadataSubsession@Live555@onvifmp@@IAE?AV?$function@$$A6A?AV?$shared_ptr@VIFrameProcessor@onvifmp@@@std@@PAVVirtualSink@onvifmp@@@Z@std@@PBD@Z 1002bb44     * CIL library *:* CIL module *
 0002:00010b54       __ehfuncinfo$??R<lambda_02633da78dd085cd30a2d2935e5e427d>@@QBE?AV?$shared_ptr@VIFrameProcessor@onvifmp@@@std@@PAVVirtualSink@onvifmp@@@Z 1002bb54     * CIL library *:* CIL module *
 0002:00010b78       __unwindtable$??R<lambda_02633da78dd085cd30a2d2935e5e427d>@@QBE?AV?$shared_ptr@VIFrameProcessor@onvifmp@@@std@@PAVVirtualSink@onvifmp@@@Z 1002bb78     * CIL library *:* CIL module *
 0002:00010b90       __ehfuncinfo$?SetupSubsession@Live555@onvifmp@@IAEXPAVMediaStreamInfo@2@PAVMediaSubsession@@@Z 1002bb90     * CIL library *:* CIL module *
 0002:00010bb4       __unwindtable$?SetupSubsession@Live555@onvifmp@@IAEXPAVMediaStreamInfo@2@PAVMediaSubsession@@@Z 1002bbb4     * CIL library *:* CIL module *
 0002:00010bc4       __ehfuncinfo$?Init@Live555@onvifmp@@IAE_NPAVMediaStreamInfo@2@@Z 1002bbc4     * CIL library *:* CIL module *
 0002:00010be8       __unwindtable$?Init@Live555@onvifmp@@IAE_NPAVMediaStreamInfo@2@@Z 1002bbe8     * CIL library *:* CIL module *
 0002:00010c10       __ehfuncinfo$?Cleanup@Live555@onvifmp@@IAEXXZ 1002bc10     * CIL library *:* CIL module *
 0002:00010c34       __unwindtable$?Cleanup@Live555@onvifmp@@IAEXXZ 1002bc34     * CIL library *:* CIL module *
 0002:00010c3c       __ehfuncinfo$??0?$function@$$A6A?AV?$shared_ptr@VIVideoRenderer@onvifmp@@@std@@PAVVideoDecoder@onvifmp@@@Z@std@@QAE@ABV01@@Z 1002bc3c     * CIL library *:* CIL module *
 0002:00010c3c       __ehfuncinfo$??0?$function@$$A6A?AV?$shared_ptr@VMetadataCollector@onvifmp@@@std@@PAVVirtualSink@onvifmp@@@Z@std@@QAE@ABV01@@Z 1002bc3c     * CIL library *:* CIL module *
 0002:00010c3c       __ehfuncinfo$??0?$function@$$A6A?AV?$shared_ptr@VVideoDecoder@onvifmp@@@std@@PAVVirtualSink@onvifmp@@@Z@std@@QAE@ABV01@@Z 1002bc3c     * CIL library *:* CIL module *
 0002:00010c60       __unwindtable$??0?$function@$$A6A?AV?$shared_ptr@VIVideoRenderer@onvifmp@@@std@@PAVVideoDecoder@onvifmp@@@Z@std@@QAE@ABV01@@Z 1002bc60     * CIL library *:* CIL module *
 0002:00010c60       __unwindtable$??0?$function@$$A6A?AV?$shared_ptr@VVideoDecoder@onvifmp@@@std@@PAVVirtualSink@onvifmp@@@Z@std@@QAE@ABV01@@Z 1002bc60     * CIL library *:* CIL module *
 0002:00010c60       __unwindtable$??0?$function@$$A6A?AV?$shared_ptr@VMetadataCollector@onvifmp@@@std@@PAVVirtualSink@onvifmp@@@Z@std@@QAE@ABV01@@Z 1002bc60     * CIL library *:* CIL module *
 0002:00010c68       __ehfuncinfo$??$make_shared@VVideoDecoder@onvifmp@@$$$V@std@@YA?AV?$shared_ptr@VVideoDecoder@onvifmp@@@0@XZ 1002bc68     * CIL library *:* CIL module *
 0002:00010c68       __ehfuncinfo$??$make_shared@VVideoRenderer@onvifmp@@ABV?$shared_ptr@VVideoBuffer@onvifmp@@@std@@@std@@YA?AV?$shared_ptr@VVideoRenderer@onvifmp@@@0@ABV?$shared_ptr@VVideoBuffer@onvifmp@@@0@@Z 1002bc68     * CIL library *:* CIL module *
 0002:00010c8c       __unwindtable$??$make_shared@VVideoDecoder@onvifmp@@$$$V@std@@YA?AV?$shared_ptr@VVideoDecoder@onvifmp@@@0@XZ 1002bc8c     * CIL library *:* CIL module *
 0002:00010c8c       __unwindtable$??$make_shared@VVideoRenderer@onvifmp@@ABV?$shared_ptr@VVideoBuffer@onvifmp@@@std@@@std@@YA?AV?$shared_ptr@VVideoRenderer@onvifmp@@@0@ABV?$shared_ptr@VVideoBuffer@onvifmp@@@0@@Z 1002bc8c     * CIL library *:* CIL module *
 0002:00010c94       __ehfuncinfo$??$?0V<lambda_02633da78dd085cd30a2d2935e5e427d>@@@?$function@$$A6A?AV?$shared_ptr@VIFrameProcessor@onvifmp@@@std@@PAVVirtualSink@onvifmp@@@Z@std@@QAE@$$QAV<lambda_02633da78dd085cd30a2d2935e5e427d>@@@Z 1002bc94     * CIL library *:* CIL module *
 0002:00010cb8       __unwindtable$??$?0V<lambda_02633da78dd085cd30a2d2935e5e427d>@@@?$function@$$A6A?AV?$shared_ptr@VIFrameProcessor@onvifmp@@@std@@PAVVirtualSink@onvifmp@@@Z@std@@QAE@$$QAV<lambda_02633da78dd085cd30a2d2935e5e427d>@@@Z 1002bcb8     * CIL library *:* CIL module *
 0002:00010ce0       __ehfuncinfo$??0?$_Func_impl@U?$_Callable_obj@V<lambda_de1d15fe10d4d9865796d6851c4d8d4d>@@$0A@@std@@V?$allocator@V?$_Func_class@V?$shared_ptr@VIFrameProcessor@onvifmp@@@std@@PAVVirtualSink@onvifmp@@@std@@@2@V?$shared_ptr@VIFrameProcessor@onvifmp@@@2@PAVVirtualSink@onvifmp@@@std@@QAE@$$QAV<lambda_de1d15fe10d4d9865796d6851c4d8d4d>@@ABV?$allocator@V?$_Func_impl@U?$_Callable_obj@V<lambda_de1d15fe10d4d9865796d6851c4d8d4d>@@$0A@@std@@V?$allocator@V?$_Func_class@V?$shared_ptr@VIFrameProcessor@onvifmp@@@std@@PAVVirtualSink@onvifmp@@@std@@@2@V?$shared_ptr@VIFrameProcessor@onvifmp@@@2@PAVVirtualSink@onvifmp@@@std@@@1@@Z 1002bce0     * CIL library *:* CIL module *
 0002:00010d04       __unwindtable$??0?$_Func_impl@U?$_Callable_obj@V<lambda_de1d15fe10d4d9865796d6851c4d8d4d>@@$0A@@std@@V?$allocator@V?$_Func_class@V?$shared_ptr@VIFrameProcessor@onvifmp@@@std@@PAVVirtualSink@onvifmp@@@std@@@2@V?$shared_ptr@VIFrameProcessor@onvifmp@@@2@PAVVirtualSink@onvifmp@@@std@@QAE@$$QAV<lambda_de1d15fe10d4d9865796d6851c4d8d4d>@@ABV?$allocator@V?$_Func_impl@U?$_Callable_obj@V<lambda_de1d15fe10d4d9865796d6851c4d8d4d>@@$0A@@std@@V?$allocator@V?$_Func_class@V?$shared_ptr@VIFrameProcessor@onvifmp@@@std@@PAVVirtualSink@onvifmp@@@std@@@2@V?$shared_ptr@VIFrameProcessor@onvifmp@@@2@PAVVirtualSink@onvifmp@@@std@@@1@@Z 1002bd04     * CIL library *:* CIL module *
 0002:00010d14       __ehfuncinfo$?_Move@?$_Func_impl@U?$_Callable_obj@V<lambda_de1d15fe10d4d9865796d6851c4d8d4d>@@$0A@@std@@V?$allocator@V?$_Func_class@V?$shared_ptr@VIFrameProcessor@onvifmp@@@std@@PAVVirtualSink@onvifmp@@@std@@@2@V?$shared_ptr@VIFrameProcessor@onvifmp@@@2@PAVVirtualSink@onvifmp@@@std@@UAEPAV?$_Func_base@V?$shared_ptr@VIFrameProcessor@onvifmp@@@std@@PAVVirtualSink@onvifmp@@@2@PAX@Z 1002bd14     * CIL library *:* CIL module *
 0002:00010d14       __ehfuncinfo$?_Copy@?$_Func_impl@U?$_Callable_obj@V<lambda_de1d15fe10d4d9865796d6851c4d8d4d>@@$0A@@std@@V?$allocator@V?$_Func_class@V?$shared_ptr@VIFrameProcessor@onvifmp@@@std@@PAVVirtualSink@onvifmp@@@std@@@2@V?$shared_ptr@VIFrameProcessor@onvifmp@@@2@PAVVirtualSink@onvifmp@@@std@@UAEPAV?$_Func_base@V?$shared_ptr@VIFrameProcessor@onvifmp@@@std@@PAVVirtualSink@onvifmp@@@2@PAX@Z 1002bd14     * CIL library *:* CIL module *
 0002:00010d38       __unwindtable$?_Copy@?$_Func_impl@U?$_Callable_obj@V<lambda_de1d15fe10d4d9865796d6851c4d8d4d>@@$0A@@std@@V?$allocator@V?$_Func_class@V?$shared_ptr@VIFrameProcessor@onvifmp@@@std@@PAVVirtualSink@onvifmp@@@std@@@2@V?$shared_ptr@VIFrameProcessor@onvifmp@@@2@PAVVirtualSink@onvifmp@@@std@@UAEPAV?$_Func_base@V?$shared_ptr@VIFrameProcessor@onvifmp@@@std@@PAVVirtualSink@onvifmp@@@2@PAX@Z 1002bd38     * CIL library *:* CIL module *
 0002:00010d38       __unwindtable$?_Move@?$_Func_impl@U?$_Callable_obj@V<lambda_de1d15fe10d4d9865796d6851c4d8d4d>@@$0A@@std@@V?$allocator@V?$_Func_class@V?$shared_ptr@VIFrameProcessor@onvifmp@@@std@@PAVVirtualSink@onvifmp@@@std@@@2@V?$shared_ptr@VIFrameProcessor@onvifmp@@@2@PAVVirtualSink@onvifmp@@@std@@UAEPAV?$_Func_base@V?$shared_ptr@VIFrameProcessor@onvifmp@@@std@@PAVVirtualSink@onvifmp@@@2@PAX@Z 1002bd38     * CIL library *:* CIL module *
 0002:00010d50       __ehfuncinfo$?_Copy@?$_Func_impl@U?$_Callable_obj@V<lambda_02633da78dd085cd30a2d2935e5e427d>@@$0A@@std@@V?$allocator@V?$_Func_class@V?$shared_ptr@VIFrameProcessor@onvifmp@@@std@@PAVVirtualSink@onvifmp@@@std@@@2@V?$shared_ptr@VIFrameProcessor@onvifmp@@@2@PAVVirtualSink@onvifmp@@@std@@UAEPAV?$_Func_base@V?$shared_ptr@VIFrameProcessor@onvifmp@@@std@@PAVVirtualSink@onvifmp@@@2@PAX@Z 1002bd50     * CIL library *:* CIL module *
 0002:00010d50       __ehfuncinfo$?_Move@?$_Func_impl@U?$_Callable_obj@V<lambda_02633da78dd085cd30a2d2935e5e427d>@@$0A@@std@@V?$allocator@V?$_Func_class@V?$shared_ptr@VIFrameProcessor@onvifmp@@@std@@PAVVirtualSink@onvifmp@@@std@@@2@V?$shared_ptr@VIFrameProcessor@onvifmp@@@2@PAVVirtualSink@onvifmp@@@std@@UAEPAV?$_Func_base@V?$shared_ptr@VIFrameProcessor@onvifmp@@@std@@PAVVirtualSink@onvifmp@@@2@PAX@Z 1002bd50     * CIL library *:* CIL module *
 0002:00010d74       __unwindtable$?_Copy@?$_Func_impl@U?$_Callable_obj@V<lambda_02633da78dd085cd30a2d2935e5e427d>@@$0A@@std@@V?$allocator@V?$_Func_class@V?$shared_ptr@VIFrameProcessor@onvifmp@@@std@@PAVVirtualSink@onvifmp@@@std@@@2@V?$shared_ptr@VIFrameProcessor@onvifmp@@@2@PAVVirtualSink@onvifmp@@@std@@UAEPAV?$_Func_base@V?$shared_ptr@VIFrameProcessor@onvifmp@@@std@@PAVVirtualSink@onvifmp@@@2@PAX@Z 1002bd74     * CIL library *:* CIL module *
 0002:00010d74       __unwindtable$?_Move@?$_Func_impl@U?$_Callable_obj@V<lambda_02633da78dd085cd30a2d2935e5e427d>@@$0A@@std@@V?$allocator@V?$_Func_class@V?$shared_ptr@VIFrameProcessor@onvifmp@@@std@@PAVVirtualSink@onvifmp@@@std@@@2@V?$shared_ptr@VIFrameProcessor@onvifmp@@@2@PAVVirtualSink@onvifmp@@@std@@UAEPAV?$_Func_base@V?$shared_ptr@VIFrameProcessor@onvifmp@@@std@@PAVVirtualSink@onvifmp@@@2@PAX@Z 1002bd74     * CIL library *:* CIL module *
 0002:00010d84       __ehfuncinfo$?createNew@H263plusVideoRTPSource@@SAPAV1@AAVUsageEnvironment@@PAVGroupsock@@EI@Z 1002bd84     * CIL library *:* CIL module *
 0002:00010d84       __ehfuncinfo$?setupHTTPTunneling1@RTSPClient@@AAE_NXZ 1002bd84     * CIL library *:* CIL module *
 0002:00010d84       __ehfuncinfo$??0DeinterleavingFrames@@QAE@XZ 1002bd84     * CIL library *:* CIL module *
 0002:00010d84       __ehfuncinfo$?createNewPacket@H264BufferedPacketFactory@@EAEPAVBufferedPacket@@PAVMultiFramedRTPSource@@@Z 1002bd84     * CIL library *:* CIL module *
 0002:00010d84       __ehfuncinfo$?createNewPacket@MPEG4GenericBufferedPacketFactory@@EAEPAVBufferedPacket@@PAVMultiFramedRTPSource@@@Z 1002bd84     * CIL library *:* CIL module *
 0002:00010d84       __ehfuncinfo$?createNew@MPEG2TransportStreamFramer@@SAPAV1@AAVUsageEnvironment@@PAVFramedSource@@@Z 1002bd84     * CIL library *:* CIL module *
 0002:00010d84       __ehfuncinfo$?ourMedia@MediaLookupTable@@SAPAV1@AAVUsageEnvironment@@@Z 1002bd84     * CIL library *:* CIL module *
 0002:00010d84       __ehfuncinfo$?createNewPacket@ADUBufferedPacketFactory@@EAEPAVBufferedPacket@@PAVMultiFramedRTPSource@@@Z 1002bd84     * CIL library *:* CIL module *
 0002:00010d84       __ehfuncinfo$?createNewPacket@JPEGBufferedPacketFactory@@EAEPAVBufferedPacket@@PAVMultiFramedRTPSource@@@Z 1002bd84     * CIL library *:* CIL module *
 0002:00010d84       __ehfuncinfo$?createNewPacket@QTGenericBufferedPacketFactory@@EAEPAVBufferedPacket@@PAVMultiFramedRTPSource@@@Z 1002bd84     * CIL library *:* CIL module *
 0002:00010d84       __ehfuncinfo$?setupHTTPTunneling2@RTSPClient@@AAE_NXZ 1002bd84     * CIL library *:* CIL module *
 0002:00010d84       __ehfuncinfo$?createNew@MP3FromADUSource@@SAPAV1@AAVUsageEnvironment@@PAVFramedSource@@_N@Z 1002bd84     * CIL library *:* CIL module *
 0002:00010d84       __ehfuncinfo$?createNewPacket@VorbisBufferedPacketFactory@@EAEPAVBufferedPacket@@PAVMultiFramedRTPSource@@@Z 1002bd84     * CIL library *:* CIL module *
 0002:00010d84       __ehfuncinfo$?createNewPacket@LATMBufferedPacketFactory@@EAEPAVBufferedPacket@@PAVMultiFramedRTPSource@@@Z 1002bd84     * CIL library *:* CIL module *
 0002:00010d84       __ehfuncinfo$?createNew@MediaSession@@SAPAV1@AAVUsageEnvironment@@PBD@Z 1002bd84     * CIL library *:* CIL module *
 0002:00010d84       __ehfuncinfo$?createNew@SimpleRTPSource@@SAPAV1@AAVUsageEnvironment@@PAVGroupsock@@EIPBDI_N@Z 1002bd84     * CIL library *:* CIL module *
 0002:00010d84       __ehfuncinfo$?createNewPacket@BufferedPacketFactory@@UAEPAVBufferedPacket@@PAVMultiFramedRTPSource@@@Z 1002bd84     * CIL library *:* CIL module *
 0002:00010d84       __ehfuncinfo$?createNewPacket@QCELPBufferedPacketFactory@@EAEPAVBufferedPacket@@PAVMultiFramedRTPSource@@@Z 1002bd84     * CIL library *:* CIL module *
 0002:00010d84       __ehfuncinfo$?createNewPacket@AMRBufferedPacketFactory@@EAEPAVBufferedPacket@@PAVMultiFramedRTPSource@@@Z 1002bd84     * CIL library *:* CIL module *
 0002:00010da8       __unwindtable$?createNewPacket@QTGenericBufferedPacketFactory@@EAEPAVBufferedPacket@@PAVMultiFramedRTPSource@@@Z 1002bda8     * CIL library *:* CIL module *
 0002:00010da8       __unwindtable$?createNewPacket@ADUBufferedPacketFactory@@EAEPAVBufferedPacket@@PAVMultiFramedRTPSource@@@Z 1002bda8     * CIL library *:* CIL module *
 0002:00010da8       __unwindtable$?createNewPacket@JPEGBufferedPacketFactory@@EAEPAVBufferedPacket@@PAVMultiFramedRTPSource@@@Z 1002bda8     * CIL library *:* CIL module *
 0002:00010da8       __unwindtable$?createNewPacket@AMRBufferedPacketFactory@@EAEPAVBufferedPacket@@PAVMultiFramedRTPSource@@@Z 1002bda8     * CIL library *:* CIL module *
 0002:00010da8       __unwindtable$?createNewPacket@MPEG4GenericBufferedPacketFactory@@EAEPAVBufferedPacket@@PAVMultiFramedRTPSource@@@Z 1002bda8     * CIL library *:* CIL module *
 0002:00010da8       __unwindtable$?createNew@SimpleRTPSource@@SAPAV1@AAVUsageEnvironment@@PAVGroupsock@@EIPBDI_N@Z 1002bda8     * CIL library *:* CIL module *
 0002:00010da8       __unwindtable$?createNewPacket@BufferedPacketFactory@@UAEPAVBufferedPacket@@PAVMultiFramedRTPSource@@@Z 1002bda8     * CIL library *:* CIL module *
 0002:00010da8       __unwindtable$?createNewPacket@H264BufferedPacketFactory@@EAEPAVBufferedPacket@@PAVMultiFramedRTPSource@@@Z 1002bda8     * CIL library *:* CIL module *
 0002:00010da8       __unwindtable$?createNewPacket@QCELPBufferedPacketFactory@@EAEPAVBufferedPacket@@PAVMultiFramedRTPSource@@@Z 1002bda8     * CIL library *:* CIL module *
 0002:00010da8       __unwindtable$?createNew@MediaSession@@SAPAV1@AAVUsageEnvironment@@PBD@Z 1002bda8     * CIL library *:* CIL module *
 0002:00010da8       __unwindtable$?createNewPacket@VorbisBufferedPacketFactory@@EAEPAVBufferedPacket@@PAVMultiFramedRTPSource@@@Z 1002bda8     * CIL library *:* CIL module *
 0002:00010da8       __unwindtable$?createNewPacket@LATMBufferedPacketFactory@@EAEPAVBufferedPacket@@PAVMultiFramedRTPSource@@@Z 1002bda8     * CIL library *:* CIL module *
 0002:00010da8       __unwindtable$?setupHTTPTunneling1@RTSPClient@@AAE_NXZ 1002bda8     * CIL library *:* CIL module *
 0002:00010da8       __unwindtable$?createNew@MPEG2TransportStreamFramer@@SAPAV1@AAVUsageEnvironment@@PAVFramedSource@@@Z 1002bda8     * CIL library *:* CIL module *
 0002:00010da8       __unwindtable$?createNew@MP3FromADUSource@@SAPAV1@AAVUsageEnvironment@@PAVFramedSource@@_N@Z 1002bda8     * CIL library *:* CIL module *
 0002:00010da8       __unwindtable$?setupHTTPTunneling2@RTSPClient@@AAE_NXZ 1002bda8     * CIL library *:* CIL module *
 0002:00010da8       __unwindtable$??0DeinterleavingFrames@@QAE@XZ 1002bda8     * CIL library *:* CIL module *
 0002:00010da8       __unwindtable$?createNew@H263plusVideoRTPSource@@SAPAV1@AAVUsageEnvironment@@PAVGroupsock@@EI@Z 1002bda8     * CIL library *:* CIL module *
 0002:00010da8       __unwindtable$?ourMedia@MediaLookupTable@@SAPAV1@AAVUsageEnvironment@@@Z 1002bda8     * CIL library *:* CIL module *
 0002:00010db0       __ehfuncinfo$??0MediaSession@@IAE@AAVUsageEnvironment@@@Z 1002bdb0     * CIL library *:* CIL module *
 0002:00010dd4       __unwindtable$??0MediaSession@@IAE@AAVUsageEnvironment@@@Z 1002bdd4     * CIL library *:* CIL module *
 0002:00010ddc       __ehfuncinfo$??1MediaSink@@MAE@XZ 1002bddc     * CIL library *:* CIL module *
 0002:00010ddc       __ehfuncinfo$??1MediaSession@@MAE@XZ 1002bddc     * CIL library *:* CIL module *
 0002:00010e00       __unwindtable$??1MediaSession@@MAE@XZ 1002be00     * CIL library *:* CIL module *
 0002:00010e00       __unwindtable$??1MediaSink@@MAE@XZ 1002be00     * CIL library *:* CIL module *
 0002:00010e08       __ehfuncinfo$?parseSourceFilterAttribute@@YA_NPBDAAUin_addr@@@Z 1002be08     * CIL library *:* CIL module *
 0002:00010e2c       __unwindtable$?parseSourceFilterAttribute@@YA_NPBDAAUin_addr@@@Z 1002be2c     * CIL library *:* CIL module *
 0002:00010e38       __ehfuncinfo$?initiate@MediaSubsession@@QAE_NH@Z 1002be38     * CIL library *:* CIL module *
 0002:00010e60       __unwindtable$?initiate@MediaSubsession@@QAE_NH@Z 1002be60     * CIL library *:* CIL module *
 0002:00010eb0       __ehfuncinfo$?connectionEndpointAddress@MediaSubsession@@QBEIXZ 1002beb0     * CIL library *:* CIL module *
 0002:00010ed4       __unwindtable$?connectionEndpointAddress@MediaSubsession@@QBEIXZ 1002bed4     * CIL library *:* CIL module *
 0002:00010ee0       __ehfuncinfo$?createSourceObjects@MediaSubsession@@MAE_NH@Z 1002bee0     * CIL library *:* CIL module *
 0002:00010f08       __unwindtable$?createSourceObjects@MediaSubsession@@MAE_NH@Z 1002bf08     * CIL library *:* CIL module *
 0002:00010f60       __ehfuncinfo$??0BasicUsageEnvironment@@IAE@AAVTaskScheduler@@@Z 1002bf60     * CIL library *:* CIL module *
 0002:00010f84       __unwindtable$??0BasicUsageEnvironment@@IAE@AAVTaskScheduler@@@Z 1002bf84     * CIL library *:* CIL module *
 0002:00010f8c       __ehfuncinfo$??0BasicTaskScheduler@@IAE@I@Z 1002bf8c     * CIL library *:* CIL module *
 0002:00010fb0       __unwindtable$??0BasicTaskScheduler@@IAE@I@Z 1002bfb0     * CIL library *:* CIL module *
 0002:00010fb8       __ehfuncinfo$?SingleStep@BasicTaskScheduler@@MAEXI@Z 1002bfb8     * CIL library *:* CIL module *
 0002:00010fdc       __unwindtable$?SingleStep@BasicTaskScheduler@@MAEXI@Z 1002bfdc     * CIL library *:* CIL module *
 0002:00010fe4       __ehfuncinfo$?sendOptionsCommand@RTSPClient@@QAEIP6AXPAV1@HPAD@ZPAVAuthenticator@@@Z 1002bfe4     * CIL library *:* CIL module *
 0002:00010fe4       __ehfuncinfo$?sendDescribeCommand@RTSPClient@@QAEIP6AXPAV1@HPAD@ZPAVAuthenticator@@@Z 1002bfe4     * CIL library *:* CIL module *
 0002:00011008       __unwindtable$?sendOptionsCommand@RTSPClient@@QAEIP6AXPAV1@HPAD@ZPAVAuthenticator@@@Z 1002c008     * CIL library *:* CIL module *
 0002:00011008       __unwindtable$?sendDescribeCommand@RTSPClient@@QAEIP6AXPAV1@HPAD@ZPAVAuthenticator@@@Z 1002c008     * CIL library *:* CIL module *
 0002:00011010       __ehfuncinfo$?sendSetupCommand@RTSPClient@@QAEIAAVMediaSubsession@@P6AXPAV1@HPAD@Z_N44PAVAuthenticator@@@Z 1002c010     * CIL library *:* CIL module *
 0002:00011034       __unwindtable$?sendSetupCommand@RTSPClient@@QAEIAAVMediaSubsession@@P6AXPAV1@HPAD@Z_N44PAVAuthenticator@@@Z 1002c034     * CIL library *:* CIL module *
 0002:0001103c       __ehfuncinfo$?parseRTSPURL@RTSPClient@@SA_NAAVUsageEnvironment@@PBDAAPAD2AAVNetAddress@@AAGPAPBD@Z 1002c03c     * CIL library *:* CIL module *
 0002:00011060       __unwindtable$?parseRTSPURL@RTSPClient@@SA_NAAVUsageEnvironment@@PBDAAPAD2AAVNetAddress@@AAGPAPBD@Z 1002c060     * CIL library *:* CIL module *
 0002:00011068       __ehfuncinfo$??0RTSPClient@@IAE@AAVUsageEnvironment@@PBDH1G@Z 1002c068     * CIL library *:* CIL module *
 0002:00011068       __ehfuncinfo$??1RTSPClient@@MAE@XZ 1002c068     * CIL library *:* CIL module *
 0002:0001108c       __unwindtable$??0RTSPClient@@IAE@AAVUsageEnvironment@@PBDH1G@Z 1002c08c     * CIL library *:* CIL module *
 0002:0001108c       __unwindtable$??1RTSPClient@@MAE@XZ 1002c08c     * CIL library *:* CIL module *
 0002:000110b4       __ehfuncinfo$?openConnection@RTSPClient@@AAEHXZ 1002c0b4     * CIL library *:* CIL module *
 0002:000110d8       __unwindtable$?openConnection@RTSPClient@@AAEHXZ 1002c0d8     * CIL library *:* CIL module *
 0002:000110e0       __ehfuncinfo$?connectToServer@RTSPClient@@AAEHHG@Z 1002c0e0     * CIL library *:* CIL module *
 0002:00011104       __unwindtable$?connectToServer@RTSPClient@@AAEHHG@Z 1002c104     * CIL library *:* CIL module *
 0002:0001110c       __ehfuncinfo$?sendRequest@RTSPClient@@MAEIPAVRequestRecord@1@@Z 1002c10c     * CIL library *:* CIL module *
 0002:00011130       __unwindtable$?sendRequest@RTSPClient@@MAEIPAVRequestRecord@1@@Z 1002c130     * CIL library *:* CIL module *
 0002:00011138       __ehfuncinfo$?handlePLAYResponse@RTSPClient@@AAE_NAAVMediaSession@@AAVMediaSubsession@@PBD22@Z 1002c138     * CIL library *:* CIL module *
 0002:0001115c       __unwindtable$?handlePLAYResponse@RTSPClient@@AAE_NAAVMediaSession@@AAVMediaSubsession@@PBD22@Z 1002c15c     * CIL library *:* CIL module *
 0002:00011164       __ehfuncinfo$?responseHandlerForHTTP_GET1@RTSPClient@@AAEXHPAD@Z 1002c164     * CIL library *:* CIL module *
 0002:00011188       __unwindtable$?responseHandlerForHTTP_GET1@RTSPClient@@AAEXHPAD@Z 1002c188     * CIL library *:* CIL module *
 0002:00011190       __ehfuncinfo$?connectionHandler1@RTSPClient@@AAEXXZ 1002c190     * CIL library *:* CIL module *
 0002:000111b4       __unwindtable$?connectionHandler1@RTSPClient@@AAEXXZ 1002c1b4     * CIL library *:* CIL module *
 0002:000111bc       __ehfuncinfo$?handleResponseBytes@RTSPClient@@AAEXH@Z 1002c1bc     * CIL library *:* CIL module *
 0002:000111e0       __unwindtable$?handleResponseBytes@RTSPClient@@AAEXH@Z 1002c1e0     * CIL library *:* CIL module *
 0002:000111e8       __ehfuncinfo$?describeURL@RTSPClient@@QAEPADPBDPAVAuthenticator@@_NH@Z 1002c1e8     * CIL library *:* CIL module *
 0002:0001120c       __unwindtable$?describeURL@RTSPClient@@QAEPADPBDPAVAuthenticator@@_NH@Z 1002c20c     * CIL library *:* CIL module *
 0002:00011214       __ehfuncinfo$?sendOptionsCmd@RTSPClient@@QAEPADPBDPAD1PAVAuthenticator@@H@Z 1002c214     * CIL library *:* CIL module *
 0002:00011238       __unwindtable$?sendOptionsCmd@RTSPClient@@QAEPADPBDPAD1PAVAuthenticator@@H@Z 1002c238     * CIL library *:* CIL module *
 0002:00011248       __ehfuncinfo$?playMediaSession@RTSPClient@@QAE_NAAVMediaSession@@NNM@Z 1002c248     * CIL library *:* CIL module *
 0002:0001126c       __unwindtable$?playMediaSession@RTSPClient@@QAE_NAAVMediaSession@@NNM@Z 1002c26c     * CIL library *:* CIL module *
 0002:00011274       __ehfuncinfo$?teardownMediaSession@RTSPClient@@QAE_NAAVMediaSession@@@Z 1002c274     * CIL library *:* CIL module *
 0002:00011298       __unwindtable$?teardownMediaSession@RTSPClient@@QAE_NAAVMediaSession@@@Z 1002c298     * CIL library *:* CIL module *
 0002:000112a0       __ehfuncinfo$?createNew@JPEGVideoRTPSource@@SAPAV1@AAVUsageEnvironment@@PAVGroupsock@@EIII@Z 1002c2a0     * CIL library *:* CIL module *
 0002:000112a0       __ehfuncinfo$?lookupSocketDescriptor@@YAPAVSocketDescriptor@@AAVUsageEnvironment@@H_N@Z 1002c2a0     * CIL library *:* CIL module *
 0002:000112a0       __ehfuncinfo$?createNew@H264VideoRTPSource@@SAPAV1@AAVUsageEnvironment@@PAVGroupsock@@EI@Z 1002c2a0     * CIL library *:* CIL module *
 0002:000112a0       __ehfuncinfo$?createNew@VorbisAudioRTPSource@@SAPAV1@AAVUsageEnvironment@@PAVGroupsock@@EI@Z 1002c2a0     * CIL library *:* CIL module *
 0002:000112a0       __ehfuncinfo$?createNew@MPEG4LATMAudioRTPSource@@SAPAV1@AAVUsageEnvironment@@PAVGroupsock@@EI@Z 1002c2a0     * CIL library *:* CIL module *
 0002:000112a0       __ehfuncinfo$?createNew@MP3ADURTPSource@@SAPAV1@AAVUsageEnvironment@@PAVGroupsock@@EI@Z 1002c2a0     * CIL library *:* CIL module *
 0002:000112c4       __unwindtable$?createNew@MPEG4LATMAudioRTPSource@@SAPAV1@AAVUsageEnvironment@@PAVGroupsock@@EI@Z 1002c2c4     * CIL library *:* CIL module *
 0002:000112c4       __unwindtable$?createNew@JPEGVideoRTPSource@@SAPAV1@AAVUsageEnvironment@@PAVGroupsock@@EIII@Z 1002c2c4     * CIL library *:* CIL module *
 0002:000112c4       __unwindtable$?createNew@VorbisAudioRTPSource@@SAPAV1@AAVUsageEnvironment@@PAVGroupsock@@EI@Z 1002c2c4     * CIL library *:* CIL module *
 0002:000112c4       __unwindtable$?createNew@MP3ADURTPSource@@SAPAV1@AAVUsageEnvironment@@PAVGroupsock@@EI@Z 1002c2c4     * CIL library *:* CIL module *
 0002:000112c4       __unwindtable$?createNew@H264VideoRTPSource@@SAPAV1@AAVUsageEnvironment@@PAVGroupsock@@EI@Z 1002c2c4     * CIL library *:* CIL module *
 0002:000112c4       __unwindtable$?lookupSocketDescriptor@@YAPAVSocketDescriptor@@AAVUsageEnvironment@@H_N@Z 1002c2c4     * CIL library *:* CIL module *
 0002:000112cc       __ehfuncinfo$??0RTPSource@@IAE@AAVUsageEnvironment@@PAVGroupsock@@EI@Z 1002c2cc     * CIL library *:* CIL module *
 0002:000112f0       __unwindtable$??0RTPSource@@IAE@AAVUsageEnvironment@@PAVGroupsock@@EI@Z 1002c2f0     * CIL library *:* CIL module *
 0002:00011308       __ehfuncinfo$??1RTPSource@@MAE@XZ 1002c308     * CIL library *:* CIL module *
 0002:0001132c       __unwindtable$??1RTPSource@@MAE@XZ 1002c32c     * CIL library *:* CIL module *
 0002:0001133c       __ehfuncinfo$?reset@RTPReceptionStatsDB@@QAEXXZ 1002c33c     * CIL library *:* CIL module *
 0002:00011360       __unwindtable$?reset@RTPReceptionStatsDB@@QAEXXZ 1002c360     * CIL library *:* CIL module *
 0002:00011368       __ehfuncinfo$??0SimpleRTPSource@@IAE@AAVUsageEnvironment@@PAVGroupsock@@EIPBDI_N@Z 1002c368     * CIL library *:* CIL module *
 0002:00011368       __ehfuncinfo$??0QuickTimeGenericRTPSource@@AAE@AAVUsageEnvironment@@PAVGroupsock@@EIPBD@Z 1002c368     * CIL library *:* CIL module *
 0002:00011368       __ehfuncinfo$??0MPEG4GenericRTPSource@@AAE@AAVUsageEnvironment@@PAVGroupsock@@EIPBD2III@Z 1002c368     * CIL library *:* CIL module *
 0002:0001138c       __unwindtable$??0SimpleRTPSource@@IAE@AAVUsageEnvironment@@PAVGroupsock@@EIPBDI_N@Z 1002c38c     * CIL library *:* CIL module *
 0002:0001138c       __unwindtable$??0QuickTimeGenericRTPSource@@AAE@AAVUsageEnvironment@@PAVGroupsock@@EIPBD@Z 1002c38c     * CIL library *:* CIL module *
 0002:0001138c       __unwindtable$??0MPEG4GenericRTPSource@@AAE@AAVUsageEnvironment@@PAVGroupsock@@EIPBD2III@Z 1002c38c     * CIL library *:* CIL module *
 0002:00011394       __ehfuncinfo$?createNew@QCELPAudioRTPSource@@SAPAVFramedSource@@AAVUsageEnvironment@@PAVGroupsock@@AAPAVRTPSource@@EI@Z 1002c394     * CIL library *:* CIL module *
 0002:000113b8       __unwindtable$?createNew@QCELPAudioRTPSource@@SAPAVFramedSource@@AAVUsageEnvironment@@PAVGroupsock@@AAPAVRTPSource@@EI@Z 1002c3b8     * CIL library *:* CIL module *
 0002:000113c8       __ehfuncinfo$??0QCELPDeinterleaver@@AAE@AAVUsageEnvironment@@PAVRawQCELPRTPSource@@@Z 1002c3c8     * CIL library *:* CIL module *
 0002:000113ec       __unwindtable$??0QCELPDeinterleaver@@AAE@AAVUsageEnvironment@@PAVRawQCELPRTPSource@@@Z 1002c3ec     * CIL library *:* CIL module *
 0002:000113fc       __ehfuncinfo$??1QCELPDeinterleaver@@EAE@XZ 1002c3fc     * CIL library *:* CIL module *
 0002:000113fc       __ehfuncinfo$??1MPEG2TransportStreamFramer@@MAE@XZ 1002c3fc     * CIL library *:* CIL module *
 0002:000113fc       __ehfuncinfo$??0MP3FromADUSource@@IAE@AAVUsageEnvironment@@PAVFramedSource@@_N@Z 1002c3fc     * CIL library *:* CIL module *
 0002:000113fc       __ehfuncinfo$??0MPEG2TransportStreamFramer@@IAE@AAVUsageEnvironment@@PAVFramedSource@@@Z 1002c3fc     * CIL library *:* CIL module *
 0002:00011420       __unwindtable$??1QCELPDeinterleaver@@EAE@XZ 1002c420     * CIL library *:* CIL module *
 0002:00011420       __unwindtable$??0MPEG2TransportStreamFramer@@IAE@AAVUsageEnvironment@@PAVFramedSource@@@Z 1002c420     * CIL library *:* CIL module *
 0002:00011420       __unwindtable$??1MPEG2TransportStreamFramer@@MAE@XZ 1002c420     * CIL library *:* CIL module *
 0002:00011420       __unwindtable$??0MP3FromADUSource@@IAE@AAVUsageEnvironment@@PAVFramedSource@@_N@Z 1002c420     * CIL library *:* CIL module *
 0002:00011428       __ehfuncinfo$??0QCELPDeinterleavingBuffer@@QAE@XZ 1002c428     * CIL library *:* CIL module *
 0002:0001144c       __unwindtable$??0QCELPDeinterleavingBuffer@@QAE@XZ 1002c44c     * CIL library *:* CIL module *
 0002:00011454       __ehfuncinfo$??1BasicUDPSource@@UAE@XZ 1002c454     * CIL library *:* CIL module *
 0002:00011454       __ehfuncinfo$??1AMRDeinterleaver@@EAE@XZ 1002c454     * CIL library *:* CIL module *
 0002:00011454       __ehfuncinfo$??1FramedFilter@@MAE@XZ 1002c454     * CIL library *:* CIL module *
 0002:00011454       __ehfuncinfo$??0BasicUDPSource@@AAE@AAVUsageEnvironment@@PAVGroupsock@@@Z 1002c454     * CIL library *:* CIL module *
 0002:00011478       __unwindtable$??1AMRDeinterleaver@@EAE@XZ 1002c478     * CIL library *:* CIL module *
 0002:00011478       __unwindtable$??1BasicUDPSource@@UAE@XZ 1002c478     * CIL library *:* CIL module *
 0002:00011478       __unwindtable$??1FramedFilter@@MAE@XZ 1002c478     * CIL library *:* CIL module *
 0002:00011478       __unwindtable$??0BasicUDPSource@@AAE@AAVUsageEnvironment@@PAVGroupsock@@@Z 1002c478     * CIL library *:* CIL module *
 0002:00011480       __ehfuncinfo$??0MP3ADUdeinterleaver@@IAE@AAVUsageEnvironment@@PAVFramedSource@@@Z 1002c480     * CIL library *:* CIL module *
 0002:000114a4       __unwindtable$??0MP3ADUdeinterleaver@@IAE@AAVUsageEnvironment@@PAVFramedSource@@@Z 1002c4a4     * CIL library *:* CIL module *
 0002:000114b4       __ehfuncinfo$??1MP3ADUdeinterleaver@@MAE@XZ 1002c4b4     * CIL library *:* CIL module *
 0002:000114d8       __unwindtable$??1MP3ADUdeinterleaver@@MAE@XZ 1002c4d8     * CIL library *:* CIL module *
 0002:000114e0       __ehfuncinfo$??0RTCPInstance@@IAE@AAVUsageEnvironment@@PAVGroupsock@@IPBEPAVRTPSink@@PBVRTPSource@@_N@Z 1002c4e0     * CIL library *:* CIL module *
 0002:00011504       __unwindtable$??0RTCPInstance@@IAE@AAVUsageEnvironment@@PAVGroupsock@@IPBEPAVRTPSink@@PBVRTPSource@@_N@Z 1002c504     * CIL library *:* CIL module *
 0002:00011524       __ehfuncinfo$??1RTCPInstance@@MAE@XZ 1002c524     * CIL library *:* CIL module *
 0002:00011548       __unwindtable$??1RTCPInstance@@MAE@XZ 1002c548     * CIL library *:* CIL module *
 0002:00011560       __ehfuncinfo$?enqueueCommonReportSuffix@RTCPInstance@@AAEXXZ 1002c560     * CIL library *:* CIL module *
 0002:00011584       __unwindtable$?enqueueCommonReportSuffix@RTCPInstance@@AAEXXZ 1002c584     * CIL library *:* CIL module *
 0002:0001158c       __ehfuncinfo$?createNew@AMRAudioRTPSource@@SAPAVAMRAudioSource@@AAVUsageEnvironment@@PAVGroupsock@@AAPAVRTPSource@@E_NI3I33@Z 1002c58c     * CIL library *:* CIL module *
 0002:000115b0       __unwindtable$?createNew@AMRAudioRTPSource@@SAPAVAMRAudioSource@@AAVUsageEnvironment@@PAVGroupsock@@AAPAVRTPSource@@E_NI3I33@Z 1002c5b0     * CIL library *:* CIL module *
 0002:000115c0       __ehfuncinfo$??0AMRDeinterleaver@@AAE@AAVUsageEnvironment@@_NIIPAVRawAMRRTPSource@@@Z 1002c5c0     * CIL library *:* CIL module *
 0002:000115e4       __unwindtable$??0AMRDeinterleaver@@AAE@AAVUsageEnvironment@@_NIIPAVRawAMRRTPSource@@@Z 1002c5e4     * CIL library *:* CIL module *
 0002:000115f4       __ehfuncinfo$??0AMRDeinterleavingBuffer@@QAE@II@Z 1002c5f4     * CIL library *:* CIL module *
 0002:00011618       __unwindtable$??0AMRDeinterleavingBuffer@@QAE@II@Z 1002c618     * CIL library *:* CIL module *
 0002:00011628       __ehfuncinfo$??1destRecord@@UAE@XZ 1002c628     * CIL library *:* CIL module *
 0002:0001164c       __unwindtable$??1destRecord@@UAE@XZ 1002c64c     * CIL library *:* CIL module *
 0002:00011654       __ehfuncinfo$??0Groupsock@@QAE@AAVUsageEnvironment@@ABUin_addr@@VPort@@E@Z 1002c654     * CIL library *:* CIL module *
 0002:00011678       __unwindtable$??0Groupsock@@QAE@AAVUsageEnvironment@@ABUin_addr@@VPort@@E@Z 1002c678     * CIL library *:* CIL module *
 0002:000116a0       __ehfuncinfo$??0Groupsock@@QAE@AAVUsageEnvironment@@ABUin_addr@@1VPort@@@Z 1002c6a0     * CIL library *:* CIL module *
 0002:000116c4       __unwindtable$??0Groupsock@@QAE@AAVUsageEnvironment@@ABUin_addr@@1VPort@@@Z 1002c6c4     * CIL library *:* CIL module *
 0002:000116ec       __ehfuncinfo$??1Groupsock@@UAE@XZ 1002c6ec     * CIL library *:* CIL module *
 0002:00011710       __unwindtable$??1Groupsock@@UAE@XZ 1002c710     * CIL library *:* CIL module *
 0002:00011728       __ehfuncinfo$?changeDestinationParameters@Groupsock@@QAEXABUin_addr@@VPort@@H@Z 1002c728     * CIL library *:* CIL module *
 0002:0001174c       __unwindtable$?changeDestinationParameters@Groupsock@@QAEXABUin_addr@@VPort@@H@Z 1002c74c     * CIL library *:* CIL module *
 0002:0001175c       __ehfuncinfo$?addDestination@Groupsock@@QAEXABUin_addr@@ABVPort@@@Z 1002c75c     * CIL library *:* CIL module *
 0002:00011780       __unwindtable$?addDestination@Groupsock@@QAEXABUin_addr@@ABVPort@@@Z 1002c780     * CIL library *:* CIL module *
 0002:00011790       __ehfuncinfo$?outputToAllMembersExcept@Groupsock@@AAEHPAVDirectedNetInterface@@EPAEII@Z 1002c790     * CIL library *:* CIL module *
 0002:000117b4       __unwindtable$?outputToAllMembersExcept@Groupsock@@AAEHPAVDirectedNetInterface@@EPAEII@Z 1002c7b4     * CIL library *:* CIL module *
 0002:000117bc       __ehfuncinfo$??6@YAAAVUsageEnvironment@@AAV0@ABVGroupsock@@@Z 1002c7bc     * CIL library *:* CIL module *
 0002:000117e0       __unwindtable$??6@YAAAVUsageEnvironment@@AAV0@ABVGroupsock@@@Z 1002c7e0     * CIL library *:* CIL module *
 0002:000117f0       __ehfuncinfo$??0BasicTaskScheduler0@@IAE@XZ 1002c7f0     * CIL library *:* CIL module *
 0002:00011814       __unwindtable$??0BasicTaskScheduler0@@IAE@XZ 1002c814     * CIL library *:* CIL module *
 0002:00011824       __ehfuncinfo$??1BasicTaskScheduler0@@UAE@XZ 1002c824     * CIL library *:* CIL module *
 0002:00011848       __unwindtable$??1BasicTaskScheduler0@@UAE@XZ 1002c848     * CIL library *:* CIL module *
 0002:00011858       __ehfuncinfo$??1HandlerSet@@UAE@XZ 1002c858     * CIL library *:* CIL module *
 0002:0001187c       __unwindtable$??1HandlerSet@@UAE@XZ 1002c87c     * CIL library *:* CIL module *
 0002:00011884       __ehfuncinfo$?parseRangeParam@@YA_NPBDAAN1AAPAD2@Z 1002c884     * CIL library *:* CIL module *
 0002:000118a8       __unwindtable$?parseRangeParam@@YA_NPBDAAN1AAPAD2@Z 1002c8a8     * CIL library *:* CIL module *
 0002:000118b0       __ehfuncinfo$??0MultiFramedRTPSource@@IAE@AAVUsageEnvironment@@PAVGroupsock@@EIPAVBufferedPacketFactory@@@Z 1002c8b0     * CIL library *:* CIL module *
 0002:000118d4       __unwindtable$??0MultiFramedRTPSource@@IAE@AAVUsageEnvironment@@PAVGroupsock@@EIPAVBufferedPacketFactory@@@Z 1002c8d4     * CIL library *:* CIL module *
 0002:000118e4       __ehfuncinfo$??1MultiFramedRTPSource@@MAE@XZ 1002c8e4     * CIL library *:* CIL module *
 0002:00011908       __unwindtable$??1MultiFramedRTPSource@@MAE@XZ 1002c908     * CIL library *:* CIL module *
 0002:00011910       __ehfuncinfo$??0GroupEId@@QAE@ABUin_addr@@GABVScope@@I@Z 1002c910     * CIL library *:* CIL module *
 0002:00011934       __unwindtable$??0GroupEId@@QAE@ABUin_addr@@GABVScope@@I@Z 1002c934     * CIL library *:* CIL module *
 0002:00011940       __sehtable$___DllMainCRTStartup 1002c940     msvcrt:crtdll.obj
 0002:00011968       __sehtable$??_M@YGXPAXIHP6EX0@Z@Z 1002c968     msvcrt:ehvecdtr.obj
 0002:00011988       __sehtable$?__ArrayUnwind@@YGXPAXIHP6EX0@Z@Z 1002c988     msvcrt:ehvecdtr.obj
 0002:000119a8       __sehtable$__IsNonwritableInCurrentImage 1002c9a8     msvcrt:pesect.obj
 0002:000119c8       __sehtable$__onexit        1002c9c8     msvcrt:atonexit.obj
 0002:000119e8       __sehtable$??_L@YGXPAXIHP6EX0@Z1@Z 1002c9e8     msvcrt:ehvecctr.obj
 0002:00011d3c       .idata$6                   1002cd3c     msvcrt:MSVCR120.dll
 0002:00011f38       .idata$6                   1002cf38     kernel32:KERNEL32.dll
 0002:00012048       .idata$6                   1002d048     msvcprt:MSVCP120.dll
 0002:00012056       .idata$6                   1002d056     ws2_32:WS2_32.dll
 0002:000121ba       .idata$6                   1002d1ba     avcodec:avcodec-54.dll
 0002:000121ca       .idata$6                   1002d1ca     avformat:avformat-54.dll
 0002:000121da       .idata$6                   1002d1da     avutil:avutil-51.dll
 0002:000121e8       .idata$6                   1002d1e8     swscale:swscale-2.dll
 0002:000122b6       .idata$6                   1002d2b6     mscoree:mscoree.dll
 0003:00000188       _randtbl                   1002e188     * CIL library *:* CIL module *
 0003:00000208       _fptr                      1002e208     * CIL library *:* CIL module *
 0003:0000020c       _state                     1002e20c     * CIL library *:* CIL module *
 0003:00000210       _rptr                      1002e210     * CIL library *:* CIL module *
 0003:00000214       $SG4294958009              1002e214     * CIL library *:* CIL module *
 0003:00000220       _PADDING                   1002e220     * CIL library *:* CIL module *
 0003:00006688       _DELAY_HOUR                10034688     libapi.obj
 0003:00006690       __Tuple_alloc              10034690     libapi.obj
 0003:00006691       _ignore                    10034691     libapi.obj
 0003:00006692       _allocator_arg             10034692     libapi.obj
 0003:00006693       _piecewise_construct       10034693     libapi.obj
 0003:00006694       _DELAY_MINUTE              10034694     libapi.obj
 0003:0000669c       _DELAY_DAY                 1003469c     libapi.obj
 0003:000066a4       ___proc_attached           100346a4     msvcrt:crtdll.obj
 0003:000066b0       _GS_ExceptionRecord        100346b0     msvcrt:gs_report.obj
 0003:00006700       _GS_ContextRecord          10034700     msvcrt:gs_report.obj
 0003:000069cc       _DebuggerWasPresent        100349cc     msvcrt:gs_report.obj
 0003:00006adc       ___onexitbegin_m           10034adc     msvcmrt:msilexit.obj
 0003:00006ae0       ___onexitend_m             10034ae0     msvcmrt:msilexit.obj
 0003:00006ae4       ___exit_list_size          10034ae4     msvcmrt:msilexit.obj
 0003:00006b30       _initializeLock_gettimeofday 10034b30     * CIL library *:* CIL module *
 0003:00006b34       ?_haveInitializedWinsock@?1??initializeWinsockIfNecessary@@9@9 10034b34     * CIL library *:* CIL module *
 0003:00007740       _allocator_arg             10035740     * CIL library *:* CIL module *
 0003:00007741       _piecewise_construct       10035741     * CIL library *:* CIL module *
 0003:00007742       __Tuple_alloc              10035742     * CIL library *:* CIL module *
 0003:00007743       _ignore                    10035743     * CIL library *:* CIL module *
 0003:00007744       _DELAY_HOUR                10035744     * CIL library *:* CIL module *
 0003:0000774c       _DELAY_MINUTE              1003574c     * CIL library *:* CIL module *
 0003:0000775c       _DELAY_DAY                 1003575c     * CIL library *:* CIL module *
 0003:00007764       _DELAY_HOUR                10035764     * CIL library *:* CIL module *
 0003:0000776c       _DELAY_MINUTE              1003576c     * CIL library *:* CIL module *
 0003:00007774       _allocator_arg             10035774     * CIL library *:* CIL module *
 0003:00007775       _piecewise_construct       10035775     * CIL library *:* CIL module *
 0003:00007776       __Tuple_alloc              10035776     * CIL library *:* CIL module *
 0003:00007777       _ignore                    10035777     * CIL library *:* CIL module *
 0003:00007778       _DELAY_DAY                 10035778     * CIL library *:* CIL module *
 0003:00007780       _DELAY_HOUR                10035780     * CIL library *:* CIL module *
 0003:00007788       _DELAY_MINUTE              10035788     * CIL library *:* CIL module *
 0003:00007790       _allocator_arg             10035790     * CIL library *:* CIL module *
 0003:00007791       _piecewise_construct       10035791     * CIL library *:* CIL module *
 0003:00007792       _allocator_arg             10035792     * CIL library *:* CIL module *
 0003:00007793       _piecewise_construct       10035793     * CIL library *:* CIL module *
 0003:00007794       _DELAY_DAY                 10035794     * CIL library *:* CIL module *
 0003:0000779c       _DELAY_HOUR                1003579c     * CIL library *:* CIL module *
 0003:000077a4       _DELAY_MINUTE              100357a4     * CIL library *:* CIL module *
 0003:000077ac       _DELAY_DAY                 100357ac     * CIL library *:* CIL module *
 0003:000077b4       _DELAY_HOUR                100357b4     * CIL library *:* CIL module *
 0003:000077bc       _DELAY_MINUTE              100357bc     * CIL library *:* CIL module *
 0003:000077c4       _DELAY_DAY                 100357c4     * CIL library *:* CIL module *
 0003:000077cc       _DELAY_HOUR                100357cc     * CIL library *:* CIL module *
 0003:000077d4       _DELAY_MINUTE              100357d4     * CIL library *:* CIL module *
 0003:000077dc       _DELAY_DAY                 100357dc     * CIL library *:* CIL module *
 0003:000077e4       _DELAY_HOUR                100357e4     * CIL library *:* CIL module *
 0003:000077ec       _DELAY_MINUTE              100357ec     * CIL library *:* CIL module *
 0003:000077f4       _DELAY_DAY                 100357f4     * CIL library *:* CIL module *
 0003:00007820       _base64DecodeTable         10035820     * CIL library *:* CIL module *
 0003:00007920       ?isInitialized@?1??gettimeofday@@YAHPAUtimeval@@PAH@Z@4_NA 10035920     * CIL library *:* CIL module *
 0003:00007924       ?ourAddress@?1??ourIPAddress@@YAIAAVUsageEnvironment@@@Z@4IA 10035924     * CIL library *:* CIL module *
 0003:00007928       ?haveInitedBase64DecodeTable@?1??base64Decode@@YAPAEPBDAAI_N@Z@4_NA 10035928     * CIL library *:* CIL module *
 0003:00007929       ?doneInit@?1???0MP3FrameParams@@QAE@XZ@4_NA 10035929     * CIL library *:* CIL module *
 0003:00007934       ?timeString@?1??timestampString@@YAPBDXZ@4PADA 10035934     * CIL library *:* CIL module *
 0003:00007940       ?epochOffset@?1??gettimeofday@@YAHPAUtimeval@@PAH@Z@4T_LARGE_INTEGER@@A 10035940     * CIL library *:* CIL module *
 0003:00007948       ?tickFrequency@?1??gettimeofday@@YAHPAUtimeval@@PAH@Z@4T_LARGE_INTEGER@@A 10035948     * CIL library *:* CIL module *
 0004:000000a0       $R000000                   100360a0     odm.player.net.res
 0004:00000378       $R0002D8                   10036378     odm.player.net.res
